
Smart Clock.elf:     file format elf32-avr

Sections:
Idx Name          Size      VMA       LMA       File off  Algn
  0 .data         00000022  00800100  0000131e  000013b2  2**0
                  CONTENTS, ALLOC, LOAD, DATA
  1 .text         0000131e  00000000  00000000  00000094  2**1
                  CONTENTS, ALLOC, LOAD, READONLY, CODE
  2 .bss          00000020  00800122  00800122  000013d4  2**0
                  ALLOC
  3 .comment      00000030  00000000  00000000  000013d4  2**0
                  CONTENTS, READONLY
  4 .note.gnu.avr.deviceinfo 00000040  00000000  00000000  00001404  2**2
                  CONTENTS, READONLY
  5 .debug_info   000005f4  00000000  00000000  00001444  2**0
                  CONTENTS, READONLY, DEBUGGING
  6 .debug_abbrev 000005a2  00000000  00000000  00001a38  2**0
                  CONTENTS, READONLY, DEBUGGING
  7 .debug_line   00000133  00000000  00000000  00001fda  2**0
                  CONTENTS, READONLY, DEBUGGING
  8 .debug_str    00000208  00000000  00000000  0000210d  2**0
                  CONTENTS, READONLY, DEBUGGING

Disassembly of section .text:

00000000 <__vectors>:
       0:	0c 94 43 00 	jmp	0x86	; 0x86 <__ctors_end>
       4:	0c 94 8a 05 	jmp	0xb14	; 0xb14 <__vector_1>
       8:	0c 94 c7 05 	jmp	0xb8e	; 0xb8e <__vector_2>
       c:	0c 94 60 00 	jmp	0xc0	; 0xc0 <__bad_interrupt>
      10:	0c 94 32 07 	jmp	0xe64	; 0xe64 <__vector_4>
      14:	0c 94 11 06 	jmp	0xc22	; 0xc22 <__vector_5>
      18:	0c 94 60 00 	jmp	0xc0	; 0xc0 <__bad_interrupt>
      1c:	0c 94 60 00 	jmp	0xc0	; 0xc0 <__bad_interrupt>
      20:	0c 94 60 00 	jmp	0xc0	; 0xc0 <__bad_interrupt>
      24:	0c 94 60 00 	jmp	0xc0	; 0xc0 <__bad_interrupt>
      28:	0c 94 60 00 	jmp	0xc0	; 0xc0 <__bad_interrupt>
      2c:	0c 94 52 08 	jmp	0x10a4	; 0x10a4 <__vector_11>
      30:	0c 94 60 00 	jmp	0xc0	; 0xc0 <__bad_interrupt>
      34:	0c 94 60 00 	jmp	0xc0	; 0xc0 <__bad_interrupt>
      38:	0c 94 60 00 	jmp	0xc0	; 0xc0 <__bad_interrupt>
      3c:	0c 94 60 00 	jmp	0xc0	; 0xc0 <__bad_interrupt>
      40:	0c 94 60 00 	jmp	0xc0	; 0xc0 <__bad_interrupt>
      44:	0c 94 60 00 	jmp	0xc0	; 0xc0 <__bad_interrupt>
      48:	0c 94 60 00 	jmp	0xc0	; 0xc0 <__bad_interrupt>
      4c:	0c 94 60 00 	jmp	0xc0	; 0xc0 <__bad_interrupt>
      50:	0c 94 60 00 	jmp	0xc0	; 0xc0 <__bad_interrupt>
      54:	0c 94 60 00 	jmp	0xc0	; 0xc0 <__bad_interrupt>
      58:	0c 94 60 00 	jmp	0xc0	; 0xc0 <__bad_interrupt>
      5c:	0c 94 60 00 	jmp	0xc0	; 0xc0 <__bad_interrupt>
      60:	0c 94 60 00 	jmp	0xc0	; 0xc0 <__bad_interrupt>
      64:	0c 94 60 00 	jmp	0xc0	; 0xc0 <__bad_interrupt>
      68:	3e 06       	cpc	r3, r30
      6a:	4b 06       	cpc	r4, r27
      6c:	5f 06       	cpc	r5, r31
      6e:	6b 06       	cpc	r6, r27
      70:	7a 06       	cpc	r7, r26
      72:	86 06       	cpc	r8, r22
      74:	92 06       	cpc	r9, r18
      76:	5e 07       	cpc	r21, r30
      78:	5e 07       	cpc	r21, r30
      7a:	6b 07       	cpc	r22, r27
      7c:	7f 07       	cpc	r23, r31
      7e:	8b 07       	cpc	r24, r27
      80:	9a 07       	cpc	r25, r26
      82:	a6 07       	cpc	r26, r22
      84:	b2 07       	cpc	r27, r18

00000086 <__ctors_end>:
      86:	11 24       	eor	r1, r1
      88:	1f be       	out	0x3f, r1	; 63
      8a:	cf ef       	ldi	r28, 0xFF	; 255
      8c:	d8 e0       	ldi	r29, 0x08	; 8
      8e:	de bf       	out	0x3e, r29	; 62
      90:	cd bf       	out	0x3d, r28	; 61

00000092 <__do_copy_data>:
      92:	11 e0       	ldi	r17, 0x01	; 1
      94:	a0 e0       	ldi	r26, 0x00	; 0
      96:	b1 e0       	ldi	r27, 0x01	; 1
      98:	ee e1       	ldi	r30, 0x1E	; 30
      9a:	f3 e1       	ldi	r31, 0x13	; 19
      9c:	02 c0       	rjmp	.+4      	; 0xa2 <__do_copy_data+0x10>
      9e:	05 90       	lpm	r0, Z+
      a0:	0d 92       	st	X+, r0
      a2:	a2 32       	cpi	r26, 0x22	; 34
      a4:	b1 07       	cpc	r27, r17
      a6:	d9 f7       	brne	.-10     	; 0x9e <__do_copy_data+0xc>

000000a8 <__do_clear_bss>:
      a8:	21 e0       	ldi	r18, 0x01	; 1
      aa:	a2 e2       	ldi	r26, 0x22	; 34
      ac:	b1 e0       	ldi	r27, 0x01	; 1
      ae:	01 c0       	rjmp	.+2      	; 0xb2 <.do_clear_bss_start>

000000b0 <.do_clear_bss_loop>:
      b0:	1d 92       	st	X+, r1

000000b2 <.do_clear_bss_start>:
      b2:	a2 34       	cpi	r26, 0x42	; 66
      b4:	b2 07       	cpc	r27, r18
      b6:	e1 f7       	brne	.-8      	; 0xb0 <.do_clear_bss_loop>
      b8:	0e 94 d9 08 	call	0x11b2	; 0x11b2 <main>
      bc:	0c 94 8d 09 	jmp	0x131a	; 0x131a <_exit>

000000c0 <__bad_interrupt>:
      c0:	0c 94 00 00 	jmp	0	; 0x0 <__vectors>

000000c4 <pinChange>:
      c4:	67 2b       	or	r22, r23
      c6:	09 f0       	breq	.+2      	; 0xca <pinChange+0x6>
      c8:	73 c0       	rjmp	.+230    	; 0x1b0 <pinChange+0xec>
      ca:	8e 30       	cpi	r24, 0x0E	; 14
      cc:	91 05       	cpc	r25, r1
      ce:	11 f4       	brne	.+4      	; 0xd4 <pinChange+0x10>
      d0:	28 98       	cbi	0x05, 0	; 5
      d2:	08 95       	ret
      d4:	8f 30       	cpi	r24, 0x0F	; 15
      d6:	91 05       	cpc	r25, r1
      d8:	11 f4       	brne	.+4      	; 0xde <pinChange+0x1a>
      da:	29 98       	cbi	0x05, 1	; 5
      dc:	08 95       	ret
      de:	80 31       	cpi	r24, 0x10	; 16
      e0:	91 05       	cpc	r25, r1
      e2:	11 f4       	brne	.+4      	; 0xe8 <pinChange+0x24>
      e4:	2a 98       	cbi	0x05, 2	; 5
      e6:	08 95       	ret
      e8:	81 31       	cpi	r24, 0x11	; 17
      ea:	91 05       	cpc	r25, r1
      ec:	11 f4       	brne	.+4      	; 0xf2 <pinChange+0x2e>
      ee:	2b 98       	cbi	0x05, 3	; 5
      f0:	08 95       	ret
      f2:	82 31       	cpi	r24, 0x12	; 18
      f4:	91 05       	cpc	r25, r1
      f6:	11 f4       	brne	.+4      	; 0xfc <pinChange+0x38>
      f8:	2c 98       	cbi	0x05, 4	; 5
      fa:	08 95       	ret
      fc:	83 31       	cpi	r24, 0x13	; 19
      fe:	91 05       	cpc	r25, r1
     100:	11 f4       	brne	.+4      	; 0x106 <pinChange+0x42>
     102:	2d 98       	cbi	0x05, 5	; 5
     104:	08 95       	ret
     106:	89 30       	cpi	r24, 0x09	; 9
     108:	91 05       	cpc	r25, r1
     10a:	11 f4       	brne	.+4      	; 0x110 <pinChange+0x4c>
     10c:	2e 98       	cbi	0x05, 6	; 5
     10e:	08 95       	ret
     110:	8a 30       	cpi	r24, 0x0A	; 10
     112:	91 05       	cpc	r25, r1
     114:	11 f4       	brne	.+4      	; 0x11a <pinChange+0x56>
     116:	2f 98       	cbi	0x05, 7	; 5
     118:	08 95       	ret
     11a:	87 31       	cpi	r24, 0x17	; 23
     11c:	91 05       	cpc	r25, r1
     11e:	11 f4       	brne	.+4      	; 0x124 <pinChange+0x60>
     120:	40 98       	cbi	0x08, 0	; 8
     122:	08 95       	ret
     124:	88 31       	cpi	r24, 0x18	; 24
     126:	91 05       	cpc	r25, r1
     128:	11 f4       	brne	.+4      	; 0x12e <pinChange+0x6a>
     12a:	41 98       	cbi	0x08, 1	; 8
     12c:	08 95       	ret
     12e:	89 31       	cpi	r24, 0x19	; 25
     130:	91 05       	cpc	r25, r1
     132:	11 f4       	brne	.+4      	; 0x138 <pinChange+0x74>
     134:	42 98       	cbi	0x08, 2	; 8
     136:	08 95       	ret
     138:	8a 31       	cpi	r24, 0x1A	; 26
     13a:	91 05       	cpc	r25, r1
     13c:	11 f4       	brne	.+4      	; 0x142 <pinChange+0x7e>
     13e:	43 98       	cbi	0x08, 3	; 8
     140:	08 95       	ret
     142:	8b 31       	cpi	r24, 0x1B	; 27
     144:	91 05       	cpc	r25, r1
     146:	11 f4       	brne	.+4      	; 0x14c <pinChange+0x88>
     148:	44 98       	cbi	0x08, 4	; 8
     14a:	08 95       	ret
     14c:	8c 31       	cpi	r24, 0x1C	; 28
     14e:	91 05       	cpc	r25, r1
     150:	11 f4       	brne	.+4      	; 0x156 <pinChange+0x92>
     152:	45 98       	cbi	0x08, 5	; 8
     154:	08 95       	ret
     156:	81 30       	cpi	r24, 0x01	; 1
     158:	91 05       	cpc	r25, r1
     15a:	11 f4       	brne	.+4      	; 0x160 <pinChange+0x9c>
     15c:	46 98       	cbi	0x08, 6	; 8
     15e:	08 95       	ret
     160:	82 30       	cpi	r24, 0x02	; 2
     162:	91 05       	cpc	r25, r1
     164:	11 f4       	brne	.+4      	; 0x16a <pinChange+0xa6>
     166:	58 98       	cbi	0x0b, 0	; 11
     168:	08 95       	ret
     16a:	83 30       	cpi	r24, 0x03	; 3
     16c:	91 05       	cpc	r25, r1
     16e:	11 f4       	brne	.+4      	; 0x174 <pinChange+0xb0>
     170:	59 98       	cbi	0x0b, 1	; 11
     172:	08 95       	ret
     174:	84 30       	cpi	r24, 0x04	; 4
     176:	91 05       	cpc	r25, r1
     178:	11 f4       	brne	.+4      	; 0x17e <pinChange+0xba>
     17a:	5a 98       	cbi	0x0b, 2	; 11
     17c:	08 95       	ret
     17e:	85 30       	cpi	r24, 0x05	; 5
     180:	91 05       	cpc	r25, r1
     182:	11 f4       	brne	.+4      	; 0x188 <pinChange+0xc4>
     184:	5b 98       	cbi	0x0b, 3	; 11
     186:	08 95       	ret
     188:	86 30       	cpi	r24, 0x06	; 6
     18a:	91 05       	cpc	r25, r1
     18c:	11 f4       	brne	.+4      	; 0x192 <pinChange+0xce>
     18e:	5c 98       	cbi	0x0b, 4	; 11
     190:	08 95       	ret
     192:	8b 30       	cpi	r24, 0x0B	; 11
     194:	91 05       	cpc	r25, r1
     196:	11 f4       	brne	.+4      	; 0x19c <pinChange+0xd8>
     198:	5d 98       	cbi	0x0b, 5	; 11
     19a:	08 95       	ret
     19c:	8c 30       	cpi	r24, 0x0C	; 12
     19e:	91 05       	cpc	r25, r1
     1a0:	11 f4       	brne	.+4      	; 0x1a6 <pinChange+0xe2>
     1a2:	5e 98       	cbi	0x0b, 6	; 11
     1a4:	08 95       	ret
     1a6:	0d 97       	sbiw	r24, 0x0d	; 13
     1a8:	09 f0       	breq	.+2      	; 0x1ac <pinChange+0xe8>
     1aa:	73 c0       	rjmp	.+230    	; 0x292 <pinChange+0x1ce>
     1ac:	5f 98       	cbi	0x0b, 7	; 11
     1ae:	08 95       	ret
     1b0:	8e 30       	cpi	r24, 0x0E	; 14
     1b2:	91 05       	cpc	r25, r1
     1b4:	11 f4       	brne	.+4      	; 0x1ba <pinChange+0xf6>
     1b6:	28 9a       	sbi	0x05, 0	; 5
     1b8:	08 95       	ret
     1ba:	8f 30       	cpi	r24, 0x0F	; 15
     1bc:	91 05       	cpc	r25, r1
     1be:	11 f4       	brne	.+4      	; 0x1c4 <pinChange+0x100>
     1c0:	29 9a       	sbi	0x05, 1	; 5
     1c2:	08 95       	ret
     1c4:	80 31       	cpi	r24, 0x10	; 16
     1c6:	91 05       	cpc	r25, r1
     1c8:	11 f4       	brne	.+4      	; 0x1ce <pinChange+0x10a>
     1ca:	2a 9a       	sbi	0x05, 2	; 5
     1cc:	08 95       	ret
     1ce:	81 31       	cpi	r24, 0x11	; 17
     1d0:	91 05       	cpc	r25, r1
     1d2:	11 f4       	brne	.+4      	; 0x1d8 <pinChange+0x114>
     1d4:	2b 9a       	sbi	0x05, 3	; 5
     1d6:	08 95       	ret
     1d8:	82 31       	cpi	r24, 0x12	; 18
     1da:	91 05       	cpc	r25, r1
     1dc:	11 f4       	brne	.+4      	; 0x1e2 <pinChange+0x11e>
     1de:	2c 9a       	sbi	0x05, 4	; 5
     1e0:	08 95       	ret
     1e2:	83 31       	cpi	r24, 0x13	; 19
     1e4:	91 05       	cpc	r25, r1
     1e6:	11 f4       	brne	.+4      	; 0x1ec <pinChange+0x128>
     1e8:	2d 9a       	sbi	0x05, 5	; 5
     1ea:	08 95       	ret
     1ec:	89 30       	cpi	r24, 0x09	; 9
     1ee:	91 05       	cpc	r25, r1
     1f0:	11 f4       	brne	.+4      	; 0x1f6 <pinChange+0x132>
     1f2:	2e 9a       	sbi	0x05, 6	; 5
     1f4:	08 95       	ret
     1f6:	8a 30       	cpi	r24, 0x0A	; 10
     1f8:	91 05       	cpc	r25, r1
     1fa:	11 f4       	brne	.+4      	; 0x200 <pinChange+0x13c>
     1fc:	2f 9a       	sbi	0x05, 7	; 5
     1fe:	08 95       	ret
     200:	87 31       	cpi	r24, 0x17	; 23
     202:	91 05       	cpc	r25, r1
     204:	11 f4       	brne	.+4      	; 0x20a <pinChange+0x146>
     206:	40 9a       	sbi	0x08, 0	; 8
     208:	08 95       	ret
     20a:	88 31       	cpi	r24, 0x18	; 24
     20c:	91 05       	cpc	r25, r1
     20e:	11 f4       	brne	.+4      	; 0x214 <pinChange+0x150>
     210:	41 9a       	sbi	0x08, 1	; 8
     212:	08 95       	ret
     214:	89 31       	cpi	r24, 0x19	; 25
     216:	91 05       	cpc	r25, r1
     218:	11 f4       	brne	.+4      	; 0x21e <pinChange+0x15a>
     21a:	42 9a       	sbi	0x08, 2	; 8
     21c:	08 95       	ret
     21e:	8a 31       	cpi	r24, 0x1A	; 26
     220:	91 05       	cpc	r25, r1
     222:	11 f4       	brne	.+4      	; 0x228 <pinChange+0x164>
     224:	43 9a       	sbi	0x08, 3	; 8
     226:	08 95       	ret
     228:	8b 31       	cpi	r24, 0x1B	; 27
     22a:	91 05       	cpc	r25, r1
     22c:	11 f4       	brne	.+4      	; 0x232 <pinChange+0x16e>
     22e:	44 9a       	sbi	0x08, 4	; 8
     230:	08 95       	ret
     232:	8c 31       	cpi	r24, 0x1C	; 28
     234:	91 05       	cpc	r25, r1
     236:	11 f4       	brne	.+4      	; 0x23c <pinChange+0x178>
     238:	45 9a       	sbi	0x08, 5	; 8
     23a:	08 95       	ret
     23c:	81 30       	cpi	r24, 0x01	; 1
     23e:	91 05       	cpc	r25, r1
     240:	11 f4       	brne	.+4      	; 0x246 <pinChange+0x182>
     242:	46 9a       	sbi	0x08, 6	; 8
     244:	08 95       	ret
     246:	82 30       	cpi	r24, 0x02	; 2
     248:	91 05       	cpc	r25, r1
     24a:	11 f4       	brne	.+4      	; 0x250 <pinChange+0x18c>
     24c:	58 9a       	sbi	0x0b, 0	; 11
     24e:	08 95       	ret
     250:	83 30       	cpi	r24, 0x03	; 3
     252:	91 05       	cpc	r25, r1
     254:	11 f4       	brne	.+4      	; 0x25a <pinChange+0x196>
     256:	59 9a       	sbi	0x0b, 1	; 11
     258:	08 95       	ret
     25a:	84 30       	cpi	r24, 0x04	; 4
     25c:	91 05       	cpc	r25, r1
     25e:	11 f4       	brne	.+4      	; 0x264 <pinChange+0x1a0>
     260:	5a 9a       	sbi	0x0b, 2	; 11
     262:	08 95       	ret
     264:	85 30       	cpi	r24, 0x05	; 5
     266:	91 05       	cpc	r25, r1
     268:	11 f4       	brne	.+4      	; 0x26e <pinChange+0x1aa>
     26a:	5b 9a       	sbi	0x0b, 3	; 11
     26c:	08 95       	ret
     26e:	86 30       	cpi	r24, 0x06	; 6
     270:	91 05       	cpc	r25, r1
     272:	11 f4       	brne	.+4      	; 0x278 <pinChange+0x1b4>
     274:	5c 9a       	sbi	0x0b, 4	; 11
     276:	08 95       	ret
     278:	8b 30       	cpi	r24, 0x0B	; 11
     27a:	91 05       	cpc	r25, r1
     27c:	11 f4       	brne	.+4      	; 0x282 <pinChange+0x1be>
     27e:	5d 9a       	sbi	0x0b, 5	; 11
     280:	08 95       	ret
     282:	8c 30       	cpi	r24, 0x0C	; 12
     284:	91 05       	cpc	r25, r1
     286:	11 f4       	brne	.+4      	; 0x28c <pinChange+0x1c8>
     288:	5e 9a       	sbi	0x0b, 6	; 11
     28a:	08 95       	ret
     28c:	0d 97       	sbiw	r24, 0x0d	; 13
     28e:	09 f4       	brne	.+2      	; 0x292 <pinChange+0x1ce>
     290:	5f 9a       	sbi	0x0b, 7	; 11
     292:	08 95       	ret

00000294 <Lcd4_Port>:
     294:	cf 93       	push	r28
     296:	c8 2f       	mov	r28, r24
     298:	80 ff       	sbrs	r24, 0
     29a:	03 c0       	rjmp	.+6      	; 0x2a2 <Lcd4_Port+0xe>
     29c:	61 e0       	ldi	r22, 0x01	; 1
     29e:	70 e0       	ldi	r23, 0x00	; 0
     2a0:	02 c0       	rjmp	.+4      	; 0x2a6 <Lcd4_Port+0x12>
     2a2:	60 e0       	ldi	r22, 0x00	; 0
     2a4:	70 e0       	ldi	r23, 0x00	; 0
     2a6:	86 e0       	ldi	r24, 0x06	; 6
     2a8:	90 e0       	ldi	r25, 0x00	; 0
     2aa:	0e 94 62 00 	call	0xc4	; 0xc4 <pinChange>
     2ae:	c1 ff       	sbrs	r28, 1
     2b0:	03 c0       	rjmp	.+6      	; 0x2b8 <Lcd4_Port+0x24>
     2b2:	61 e0       	ldi	r22, 0x01	; 1
     2b4:	70 e0       	ldi	r23, 0x00	; 0
     2b6:	02 c0       	rjmp	.+4      	; 0x2bc <Lcd4_Port+0x28>
     2b8:	60 e0       	ldi	r22, 0x00	; 0
     2ba:	70 e0       	ldi	r23, 0x00	; 0
     2bc:	8b e0       	ldi	r24, 0x0B	; 11
     2be:	90 e0       	ldi	r25, 0x00	; 0
     2c0:	0e 94 62 00 	call	0xc4	; 0xc4 <pinChange>
     2c4:	c2 ff       	sbrs	r28, 2
     2c6:	03 c0       	rjmp	.+6      	; 0x2ce <Lcd4_Port+0x3a>
     2c8:	61 e0       	ldi	r22, 0x01	; 1
     2ca:	70 e0       	ldi	r23, 0x00	; 0
     2cc:	02 c0       	rjmp	.+4      	; 0x2d2 <Lcd4_Port+0x3e>
     2ce:	60 e0       	ldi	r22, 0x00	; 0
     2d0:	70 e0       	ldi	r23, 0x00	; 0
     2d2:	8c e0       	ldi	r24, 0x0C	; 12
     2d4:	90 e0       	ldi	r25, 0x00	; 0
     2d6:	0e 94 62 00 	call	0xc4	; 0xc4 <pinChange>
     2da:	c3 ff       	sbrs	r28, 3
     2dc:	03 c0       	rjmp	.+6      	; 0x2e4 <Lcd4_Port+0x50>
     2de:	61 e0       	ldi	r22, 0x01	; 1
     2e0:	70 e0       	ldi	r23, 0x00	; 0
     2e2:	02 c0       	rjmp	.+4      	; 0x2e8 <Lcd4_Port+0x54>
     2e4:	60 e0       	ldi	r22, 0x00	; 0
     2e6:	70 e0       	ldi	r23, 0x00	; 0
     2e8:	8d e0       	ldi	r24, 0x0D	; 13
     2ea:	90 e0       	ldi	r25, 0x00	; 0
     2ec:	cf 91       	pop	r28
     2ee:	0c 94 62 00 	jmp	0xc4	; 0xc4 <pinChange>

000002f2 <Lcd4_Cmd>:
     2f2:	cf 93       	push	r28
     2f4:	c8 2f       	mov	r28, r24
     2f6:	60 e0       	ldi	r22, 0x00	; 0
     2f8:	70 e0       	ldi	r23, 0x00	; 0
     2fa:	8f e0       	ldi	r24, 0x0F	; 15
     2fc:	90 e0       	ldi	r25, 0x00	; 0
     2fe:	0e 94 62 00 	call	0xc4	; 0xc4 <pinChange>
     302:	8c 2f       	mov	r24, r28
     304:	0e 94 4a 01 	call	0x294	; 0x294 <Lcd4_Port>
     308:	61 e0       	ldi	r22, 0x01	; 1
     30a:	70 e0       	ldi	r23, 0x00	; 0
     30c:	8e e0       	ldi	r24, 0x0E	; 14
     30e:	90 e0       	ldi	r25, 0x00	; 0
     310:	0e 94 62 00 	call	0xc4	; 0xc4 <pinChange>
     314:	00 00       	nop
     316:	60 e0       	ldi	r22, 0x00	; 0
     318:	70 e0       	ldi	r23, 0x00	; 0
     31a:	8e e0       	ldi	r24, 0x0E	; 14
     31c:	90 e0       	ldi	r25, 0x00	; 0
     31e:	0e 94 62 00 	call	0xc4	; 0xc4 <pinChange>
     322:	00 00       	nop
     324:	cf 91       	pop	r28
     326:	08 95       	ret

00000328 <Lcd4_Clear>:
     328:	80 e0       	ldi	r24, 0x00	; 0
     32a:	0e 94 79 01 	call	0x2f2	; 0x2f2 <Lcd4_Cmd>
     32e:	81 e0       	ldi	r24, 0x01	; 1
     330:	0c 94 79 01 	jmp	0x2f2	; 0x2f2 <Lcd4_Cmd>

00000334 <Lcd4_Set_Cursor>:
     334:	cf 93       	push	r28
     336:	c6 2f       	mov	r28, r22
     338:	81 30       	cpi	r24, 0x01	; 1
     33a:	11 f4       	brne	.+4      	; 0x340 <Lcd4_Set_Cursor+0xc>
     33c:	80 e8       	ldi	r24, 0x80	; 128
     33e:	03 c0       	rjmp	.+6      	; 0x346 <Lcd4_Set_Cursor+0x12>
     340:	82 30       	cpi	r24, 0x02	; 2
     342:	59 f4       	brne	.+22     	; 0x35a <Lcd4_Set_Cursor+0x26>
     344:	80 ec       	ldi	r24, 0xC0	; 192
     346:	8c 0f       	add	r24, r28
     348:	82 95       	swap	r24
     34a:	8f 70       	andi	r24, 0x0F	; 15
     34c:	0e 94 79 01 	call	0x2f2	; 0x2f2 <Lcd4_Cmd>
     350:	8c 2f       	mov	r24, r28
     352:	8f 70       	andi	r24, 0x0F	; 15
     354:	cf 91       	pop	r28
     356:	0c 94 79 01 	jmp	0x2f2	; 0x2f2 <Lcd4_Cmd>
     35a:	cf 91       	pop	r28
     35c:	08 95       	ret

0000035e <Lcd4_Init>:
     35e:	8f ef       	ldi	r24, 0xFF	; 255
     360:	8a b9       	out	0x0a, r24	; 10
     362:	84 b9       	out	0x04, r24	; 4
     364:	80 e0       	ldi	r24, 0x00	; 0
     366:	0e 94 4a 01 	call	0x294	; 0x294 <Lcd4_Port>
     36a:	86 e0       	ldi	r24, 0x06	; 6
     36c:	8a 95       	dec	r24
     36e:	f1 f7       	brne	.-4      	; 0x36c <Lcd4_Init+0xe>
     370:	00 c0       	rjmp	.+0      	; 0x372 <Lcd4_Init+0x14>
     372:	83 e0       	ldi	r24, 0x03	; 3
     374:	0e 94 79 01 	call	0x2f2	; 0x2f2 <Lcd4_Cmd>
     378:	00 c0       	rjmp	.+0      	; 0x37a <Lcd4_Init+0x1c>
     37a:	00 c0       	rjmp	.+0      	; 0x37c <Lcd4_Init+0x1e>
     37c:	00 00       	nop
     37e:	83 e0       	ldi	r24, 0x03	; 3
     380:	0e 94 79 01 	call	0x2f2	; 0x2f2 <Lcd4_Cmd>
     384:	83 e0       	ldi	r24, 0x03	; 3
     386:	8a 95       	dec	r24
     388:	f1 f7       	brne	.-4      	; 0x386 <Lcd4_Init+0x28>
     38a:	00 c0       	rjmp	.+0      	; 0x38c <Lcd4_Init+0x2e>
     38c:	83 e0       	ldi	r24, 0x03	; 3
     38e:	0e 94 79 01 	call	0x2f2	; 0x2f2 <Lcd4_Cmd>
     392:	82 e0       	ldi	r24, 0x02	; 2
     394:	0e 94 79 01 	call	0x2f2	; 0x2f2 <Lcd4_Cmd>
     398:	82 e0       	ldi	r24, 0x02	; 2
     39a:	0e 94 79 01 	call	0x2f2	; 0x2f2 <Lcd4_Cmd>
     39e:	88 e0       	ldi	r24, 0x08	; 8
     3a0:	0e 94 79 01 	call	0x2f2	; 0x2f2 <Lcd4_Cmd>
     3a4:	80 e0       	ldi	r24, 0x00	; 0
     3a6:	0e 94 79 01 	call	0x2f2	; 0x2f2 <Lcd4_Cmd>
     3aa:	8c e0       	ldi	r24, 0x0C	; 12
     3ac:	0e 94 79 01 	call	0x2f2	; 0x2f2 <Lcd4_Cmd>
     3b0:	80 e0       	ldi	r24, 0x00	; 0
     3b2:	0e 94 79 01 	call	0x2f2	; 0x2f2 <Lcd4_Cmd>
     3b6:	86 e0       	ldi	r24, 0x06	; 6
     3b8:	0c 94 79 01 	jmp	0x2f2	; 0x2f2 <Lcd4_Cmd>

000003bc <Lcd4_Write_Char>:
     3bc:	cf 93       	push	r28
     3be:	c8 2f       	mov	r28, r24
     3c0:	61 e0       	ldi	r22, 0x01	; 1
     3c2:	70 e0       	ldi	r23, 0x00	; 0
     3c4:	8f e0       	ldi	r24, 0x0F	; 15
     3c6:	90 e0       	ldi	r25, 0x00	; 0
     3c8:	0e 94 62 00 	call	0xc4	; 0xc4 <pinChange>
     3cc:	8c 2f       	mov	r24, r28
     3ce:	82 95       	swap	r24
     3d0:	8f 70       	andi	r24, 0x0F	; 15
     3d2:	0e 94 4a 01 	call	0x294	; 0x294 <Lcd4_Port>
     3d6:	61 e0       	ldi	r22, 0x01	; 1
     3d8:	70 e0       	ldi	r23, 0x00	; 0
     3da:	8e e0       	ldi	r24, 0x0E	; 14
     3dc:	90 e0       	ldi	r25, 0x00	; 0
     3de:	0e 94 62 00 	call	0xc4	; 0xc4 <pinChange>
     3e2:	00 00       	nop
     3e4:	60 e0       	ldi	r22, 0x00	; 0
     3e6:	70 e0       	ldi	r23, 0x00	; 0
     3e8:	8e e0       	ldi	r24, 0x0E	; 14
     3ea:	90 e0       	ldi	r25, 0x00	; 0
     3ec:	0e 94 62 00 	call	0xc4	; 0xc4 <pinChange>
     3f0:	00 00       	nop
     3f2:	8c 2f       	mov	r24, r28
     3f4:	8f 70       	andi	r24, 0x0F	; 15
     3f6:	0e 94 4a 01 	call	0x294	; 0x294 <Lcd4_Port>
     3fa:	61 e0       	ldi	r22, 0x01	; 1
     3fc:	70 e0       	ldi	r23, 0x00	; 0
     3fe:	8e e0       	ldi	r24, 0x0E	; 14
     400:	90 e0       	ldi	r25, 0x00	; 0
     402:	0e 94 62 00 	call	0xc4	; 0xc4 <pinChange>
     406:	00 00       	nop
     408:	60 e0       	ldi	r22, 0x00	; 0
     40a:	70 e0       	ldi	r23, 0x00	; 0
     40c:	8e e0       	ldi	r24, 0x0E	; 14
     40e:	90 e0       	ldi	r25, 0x00	; 0
     410:	0e 94 62 00 	call	0xc4	; 0xc4 <pinChange>
     414:	00 00       	nop
     416:	cf 91       	pop	r28
     418:	08 95       	ret

0000041a <Lcd4_Write_String>:
     41a:	cf 93       	push	r28
     41c:	df 93       	push	r29
     41e:	ec 01       	movw	r28, r24
     420:	89 91       	ld	r24, Y+
     422:	88 23       	and	r24, r24
     424:	19 f0       	breq	.+6      	; 0x42c <Lcd4_Write_String+0x12>
     426:	0e 94 de 01 	call	0x3bc	; 0x3bc <Lcd4_Write_Char>
     42a:	fa cf       	rjmp	.-12     	; 0x420 <Lcd4_Write_String+0x6>
     42c:	df 91       	pop	r29
     42e:	cf 91       	pop	r28
     430:	08 95       	ret

00000432 <DisplayDate>:
     432:	cf 93       	push	r28
     434:	df 93       	push	r29
     436:	cd b7       	in	r28, 0x3d	; 61
     438:	de b7       	in	r29, 0x3e	; 62
     43a:	28 97       	sbiw	r28, 0x08	; 8
     43c:	0f b6       	in	r0, 0x3f	; 63
     43e:	f8 94       	cli
     440:	de bf       	out	0x3e, r29	; 62
     442:	0f be       	out	0x3f, r0	; 63
     444:	cd bf       	out	0x3d, r28	; 61
     446:	0e 94 9a 01 	call	0x334	; 0x334 <Lcd4_Set_Cursor>
     44a:	4a e0       	ldi	r20, 0x0A	; 10
     44c:	50 e0       	ldi	r21, 0x00	; 0
     44e:	be 01       	movw	r22, r28
     450:	6f 5f       	subi	r22, 0xFF	; 255
     452:	7f 4f       	sbci	r23, 0xFF	; 255
     454:	80 91 04 01 	lds	r24, 0x0104	; 0x800104 <year>
     458:	90 91 05 01 	lds	r25, 0x0105	; 0x800105 <year+0x1>
     45c:	0e 94 4d 09 	call	0x129a	; 0x129a <itoa>
     460:	4a e0       	ldi	r20, 0x0A	; 10
     462:	50 e0       	ldi	r21, 0x00	; 0
     464:	be 01       	movw	r22, r28
     466:	69 5f       	subi	r22, 0xF9	; 249
     468:	7f 4f       	sbci	r23, 0xFF	; 255
     46a:	80 91 02 01 	lds	r24, 0x0102	; 0x800102 <month>
     46e:	90 91 03 01 	lds	r25, 0x0103	; 0x800103 <month+0x1>
     472:	0e 94 4d 09 	call	0x129a	; 0x129a <itoa>
     476:	4a e0       	ldi	r20, 0x0A	; 10
     478:	50 e0       	ldi	r21, 0x00	; 0
     47a:	be 01       	movw	r22, r28
     47c:	6b 5f       	subi	r22, 0xFB	; 251
     47e:	7f 4f       	sbci	r23, 0xFF	; 255
     480:	80 91 06 01 	lds	r24, 0x0106	; 0x800106 <day>
     484:	90 91 07 01 	lds	r25, 0x0107	; 0x800107 <day+0x1>
     488:	0e 94 4d 09 	call	0x129a	; 0x129a <itoa>
     48c:	89 81       	ldd	r24, Y+1	; 0x01
     48e:	0e 94 de 01 	call	0x3bc	; 0x3bc <Lcd4_Write_Char>
     492:	8a 81       	ldd	r24, Y+2	; 0x02
     494:	0e 94 de 01 	call	0x3bc	; 0x3bc <Lcd4_Write_Char>
     498:	8b 81       	ldd	r24, Y+3	; 0x03
     49a:	0e 94 de 01 	call	0x3bc	; 0x3bc <Lcd4_Write_Char>
     49e:	8c 81       	ldd	r24, Y+4	; 0x04
     4a0:	0e 94 de 01 	call	0x3bc	; 0x3bc <Lcd4_Write_Char>
     4a4:	8f e2       	ldi	r24, 0x2F	; 47
     4a6:	0e 94 de 01 	call	0x3bc	; 0x3bc <Lcd4_Write_Char>
     4aa:	8f 81       	ldd	r24, Y+7	; 0x07
     4ac:	0e 94 de 01 	call	0x3bc	; 0x3bc <Lcd4_Write_Char>
     4b0:	88 85       	ldd	r24, Y+8	; 0x08
     4b2:	0e 94 de 01 	call	0x3bc	; 0x3bc <Lcd4_Write_Char>
     4b6:	8f e2       	ldi	r24, 0x2F	; 47
     4b8:	0e 94 de 01 	call	0x3bc	; 0x3bc <Lcd4_Write_Char>
     4bc:	8d 81       	ldd	r24, Y+5	; 0x05
     4be:	0e 94 de 01 	call	0x3bc	; 0x3bc <Lcd4_Write_Char>
     4c2:	8e 81       	ldd	r24, Y+6	; 0x06
     4c4:	0e 94 de 01 	call	0x3bc	; 0x3bc <Lcd4_Write_Char>
     4c8:	28 96       	adiw	r28, 0x08	; 8
     4ca:	0f b6       	in	r0, 0x3f	; 63
     4cc:	f8 94       	cli
     4ce:	de bf       	out	0x3e, r29	; 62
     4d0:	0f be       	out	0x3f, r0	; 63
     4d2:	cd bf       	out	0x3d, r28	; 61
     4d4:	df 91       	pop	r29
     4d6:	cf 91       	pop	r28
     4d8:	08 95       	ret

000004da <DisplayAlarm>:
     4da:	cf 93       	push	r28
     4dc:	df 93       	push	r29
     4de:	00 d0       	rcall	.+0      	; 0x4e0 <DisplayAlarm+0x6>
     4e0:	00 d0       	rcall	.+0      	; 0x4e2 <DisplayAlarm+0x8>
     4e2:	00 d0       	rcall	.+0      	; 0x4e4 <DisplayAlarm+0xa>
     4e4:	cd b7       	in	r28, 0x3d	; 61
     4e6:	de b7       	in	r29, 0x3e	; 62
     4e8:	0e 94 9a 01 	call	0x334	; 0x334 <Lcd4_Set_Cursor>
     4ec:	4a e0       	ldi	r20, 0x0A	; 10
     4ee:	50 e0       	ldi	r21, 0x00	; 0
     4f0:	be 01       	movw	r22, r28
     4f2:	6b 5f       	subi	r22, 0xFB	; 251
     4f4:	7f 4f       	sbci	r23, 0xFF	; 255
     4f6:	80 91 00 01 	lds	r24, 0x0100	; 0x800100 <__data_start>
     4fa:	90 91 01 01 	lds	r25, 0x0101	; 0x800101 <__data_start+0x1>
     4fe:	0e 94 4d 09 	call	0x129a	; 0x129a <itoa>
     502:	4a e0       	ldi	r20, 0x0A	; 10
     504:	50 e0       	ldi	r21, 0x00	; 0
     506:	be 01       	movw	r22, r28
     508:	6d 5f       	subi	r22, 0xFD	; 253
     50a:	7f 4f       	sbci	r23, 0xFF	; 255
     50c:	80 91 24 01 	lds	r24, 0x0124	; 0x800124 <alarm_minute>
     510:	90 91 25 01 	lds	r25, 0x0125	; 0x800125 <alarm_minute+0x1>
     514:	0e 94 4d 09 	call	0x129a	; 0x129a <itoa>
     518:	4a e0       	ldi	r20, 0x0A	; 10
     51a:	50 e0       	ldi	r21, 0x00	; 0
     51c:	be 01       	movw	r22, r28
     51e:	6f 5f       	subi	r22, 0xFF	; 255
     520:	7f 4f       	sbci	r23, 0xFF	; 255
     522:	80 91 22 01 	lds	r24, 0x0122	; 0x800122 <__data_end>
     526:	90 91 23 01 	lds	r25, 0x0123	; 0x800123 <__data_end+0x1>
     52a:	0e 94 4d 09 	call	0x129a	; 0x129a <itoa>
     52e:	8d 81       	ldd	r24, Y+5	; 0x05
     530:	0e 94 de 01 	call	0x3bc	; 0x3bc <Lcd4_Write_Char>
     534:	8e 81       	ldd	r24, Y+6	; 0x06
     536:	0e 94 de 01 	call	0x3bc	; 0x3bc <Lcd4_Write_Char>
     53a:	8a e3       	ldi	r24, 0x3A	; 58
     53c:	0e 94 de 01 	call	0x3bc	; 0x3bc <Lcd4_Write_Char>
     540:	8b 81       	ldd	r24, Y+3	; 0x03
     542:	0e 94 de 01 	call	0x3bc	; 0x3bc <Lcd4_Write_Char>
     546:	8c 81       	ldd	r24, Y+4	; 0x04
     548:	0e 94 de 01 	call	0x3bc	; 0x3bc <Lcd4_Write_Char>
     54c:	8a e3       	ldi	r24, 0x3A	; 58
     54e:	0e 94 de 01 	call	0x3bc	; 0x3bc <Lcd4_Write_Char>
     552:	89 81       	ldd	r24, Y+1	; 0x01
     554:	0e 94 de 01 	call	0x3bc	; 0x3bc <Lcd4_Write_Char>
     558:	8a 81       	ldd	r24, Y+2	; 0x02
     55a:	0e 94 de 01 	call	0x3bc	; 0x3bc <Lcd4_Write_Char>
     55e:	80 e2       	ldi	r24, 0x20	; 32
     560:	0e 94 de 01 	call	0x3bc	; 0x3bc <Lcd4_Write_Char>
     564:	80 91 3e 01 	lds	r24, 0x013E	; 0x80013e <am_pm_a>
     568:	90 91 3f 01 	lds	r25, 0x013F	; 0x80013f <am_pm_a+0x1>
     56c:	89 2b       	or	r24, r25
     56e:	19 f4       	brne	.+6      	; 0x576 <DisplayAlarm+0x9c>
     570:	80 e1       	ldi	r24, 0x10	; 16
     572:	91 e0       	ldi	r25, 0x01	; 1
     574:	02 c0       	rjmp	.+4      	; 0x57a <DisplayAlarm+0xa0>
     576:	83 e1       	ldi	r24, 0x13	; 19
     578:	91 e0       	ldi	r25, 0x01	; 1
     57a:	0e 94 0d 02 	call	0x41a	; 0x41a <Lcd4_Write_String>
     57e:	80 e2       	ldi	r24, 0x20	; 32
     580:	0e 94 de 01 	call	0x3bc	; 0x3bc <Lcd4_Write_Char>
     584:	80 91 28 01 	lds	r24, 0x0128	; 0x800128 <alarm_state>
     588:	90 91 29 01 	lds	r25, 0x0129	; 0x800129 <alarm_state+0x1>
     58c:	01 97       	sbiw	r24, 0x01	; 1
     58e:	19 f4       	brne	.+6      	; 0x596 <DisplayAlarm+0xbc>
     590:	86 e1       	ldi	r24, 0x16	; 22
     592:	91 e0       	ldi	r25, 0x01	; 1
     594:	02 c0       	rjmp	.+4      	; 0x59a <DisplayAlarm+0xc0>
     596:	89 e1       	ldi	r24, 0x19	; 25
     598:	91 e0       	ldi	r25, 0x01	; 1
     59a:	0e 94 0d 02 	call	0x41a	; 0x41a <Lcd4_Write_String>
     59e:	26 96       	adiw	r28, 0x06	; 6
     5a0:	0f b6       	in	r0, 0x3f	; 63
     5a2:	f8 94       	cli
     5a4:	de bf       	out	0x3e, r29	; 62
     5a6:	0f be       	out	0x3f, r0	; 63
     5a8:	cd bf       	out	0x3d, r28	; 61
     5aa:	df 91       	pop	r29
     5ac:	cf 91       	pop	r28
     5ae:	08 95       	ret

000005b0 <DisplayTime>:
     5b0:	cf 93       	push	r28
     5b2:	df 93       	push	r29
     5b4:	00 d0       	rcall	.+0      	; 0x5b6 <DisplayTime+0x6>
     5b6:	00 d0       	rcall	.+0      	; 0x5b8 <DisplayTime+0x8>
     5b8:	00 d0       	rcall	.+0      	; 0x5ba <DisplayTime+0xa>
     5ba:	cd b7       	in	r28, 0x3d	; 61
     5bc:	de b7       	in	r29, 0x3e	; 62
     5be:	0e 94 9a 01 	call	0x334	; 0x334 <Lcd4_Set_Cursor>
     5c2:	4a e0       	ldi	r20, 0x0A	; 10
     5c4:	50 e0       	ldi	r21, 0x00	; 0
     5c6:	be 01       	movw	r22, r28
     5c8:	6b 5f       	subi	r22, 0xFB	; 251
     5ca:	7f 4f       	sbci	r23, 0xFF	; 255
     5cc:	80 91 0c 01 	lds	r24, 0x010C	; 0x80010c <hour>
     5d0:	90 91 0d 01 	lds	r25, 0x010D	; 0x80010d <hour+0x1>
     5d4:	0e 94 4d 09 	call	0x129a	; 0x129a <itoa>
     5d8:	4a e0       	ldi	r20, 0x0A	; 10
     5da:	50 e0       	ldi	r21, 0x00	; 0
     5dc:	be 01       	movw	r22, r28
     5de:	6d 5f       	subi	r22, 0xFD	; 253
     5e0:	7f 4f       	sbci	r23, 0xFF	; 255
     5e2:	80 91 30 01 	lds	r24, 0x0130	; 0x800130 <minute>
     5e6:	90 91 31 01 	lds	r25, 0x0131	; 0x800131 <minute+0x1>
     5ea:	0e 94 4d 09 	call	0x129a	; 0x129a <itoa>
     5ee:	4a e0       	ldi	r20, 0x0A	; 10
     5f0:	50 e0       	ldi	r21, 0x00	; 0
     5f2:	be 01       	movw	r22, r28
     5f4:	6f 5f       	subi	r22, 0xFF	; 255
     5f6:	7f 4f       	sbci	r23, 0xFF	; 255
     5f8:	80 91 2e 01 	lds	r24, 0x012E	; 0x80012e <second>
     5fc:	90 91 2f 01 	lds	r25, 0x012F	; 0x80012f <second+0x1>
     600:	0e 94 4d 09 	call	0x129a	; 0x129a <itoa>
     604:	8d 81       	ldd	r24, Y+5	; 0x05
     606:	0e 94 de 01 	call	0x3bc	; 0x3bc <Lcd4_Write_Char>
     60a:	8e 81       	ldd	r24, Y+6	; 0x06
     60c:	0e 94 de 01 	call	0x3bc	; 0x3bc <Lcd4_Write_Char>
     610:	8d e1       	ldi	r24, 0x1D	; 29
     612:	91 e0       	ldi	r25, 0x01	; 1
     614:	0e 94 0d 02 	call	0x41a	; 0x41a <Lcd4_Write_String>
     618:	8b 81       	ldd	r24, Y+3	; 0x03
     61a:	0e 94 de 01 	call	0x3bc	; 0x3bc <Lcd4_Write_Char>
     61e:	8c 81       	ldd	r24, Y+4	; 0x04
     620:	0e 94 de 01 	call	0x3bc	; 0x3bc <Lcd4_Write_Char>
     624:	8d e1       	ldi	r24, 0x1D	; 29
     626:	91 e0       	ldi	r25, 0x01	; 1
     628:	0e 94 0d 02 	call	0x41a	; 0x41a <Lcd4_Write_String>
     62c:	89 81       	ldd	r24, Y+1	; 0x01
     62e:	0e 94 de 01 	call	0x3bc	; 0x3bc <Lcd4_Write_Char>
     632:	8a 81       	ldd	r24, Y+2	; 0x02
     634:	0e 94 de 01 	call	0x3bc	; 0x3bc <Lcd4_Write_Char>
     638:	8f e1       	ldi	r24, 0x1F	; 31
     63a:	91 e0       	ldi	r25, 0x01	; 1
     63c:	0e 94 0d 02 	call	0x41a	; 0x41a <Lcd4_Write_String>
     640:	80 91 40 01 	lds	r24, 0x0140	; 0x800140 <am_pm_t>
     644:	90 91 41 01 	lds	r25, 0x0141	; 0x800141 <am_pm_t+0x1>
     648:	89 2b       	or	r24, r25
     64a:	19 f4       	brne	.+6      	; 0x652 <DisplayTime+0xa2>
     64c:	80 e1       	ldi	r24, 0x10	; 16
     64e:	91 e0       	ldi	r25, 0x01	; 1
     650:	02 c0       	rjmp	.+4      	; 0x656 <DisplayTime+0xa6>
     652:	83 e1       	ldi	r24, 0x13	; 19
     654:	91 e0       	ldi	r25, 0x01	; 1
     656:	0e 94 0d 02 	call	0x41a	; 0x41a <Lcd4_Write_String>
     65a:	80 e2       	ldi	r24, 0x20	; 32
     65c:	0e 94 de 01 	call	0x3bc	; 0x3bc <Lcd4_Write_Char>
     660:	80 91 28 01 	lds	r24, 0x0128	; 0x800128 <alarm_state>
     664:	90 91 29 01 	lds	r25, 0x0129	; 0x800129 <alarm_state+0x1>
     668:	01 97       	sbiw	r24, 0x01	; 1
     66a:	19 f4       	brne	.+6      	; 0x672 <DisplayTime+0xc2>
     66c:	8c ef       	ldi	r24, 0xFC	; 252
     66e:	0e 94 de 01 	call	0x3bc	; 0x3bc <Lcd4_Write_Char>
     672:	26 96       	adiw	r28, 0x06	; 6
     674:	0f b6       	in	r0, 0x3f	; 63
     676:	f8 94       	cli
     678:	de bf       	out	0x3e, r29	; 62
     67a:	0f be       	out	0x3f, r0	; 63
     67c:	cd bf       	out	0x3d, r28	; 61
     67e:	df 91       	pop	r29
     680:	cf 91       	pop	r28
     682:	08 95       	ret

00000684 <DisplayTemperature>:
     684:	cf 93       	push	r28
     686:	df 93       	push	r29
     688:	00 d0       	rcall	.+0      	; 0x68a <DisplayTemperature+0x6>
     68a:	1f 92       	push	r1
     68c:	cd b7       	in	r28, 0x3d	; 61
     68e:	de b7       	in	r29, 0x3e	; 62
     690:	0e 94 9a 01 	call	0x334	; 0x334 <Lcd4_Set_Cursor>
     694:	4a e0       	ldi	r20, 0x0A	; 10
     696:	50 e0       	ldi	r21, 0x00	; 0
     698:	be 01       	movw	r22, r28
     69a:	6f 5f       	subi	r22, 0xFF	; 255
     69c:	7f 4f       	sbci	r23, 0xFF	; 255
     69e:	80 91 36 01 	lds	r24, 0x0136	; 0x800136 <temperature_c>
     6a2:	90 91 37 01 	lds	r25, 0x0137	; 0x800137 <temperature_c+0x1>
     6a6:	0e 94 4d 09 	call	0x129a	; 0x129a <itoa>
     6aa:	89 81       	ldd	r24, Y+1	; 0x01
     6ac:	0e 94 de 01 	call	0x3bc	; 0x3bc <Lcd4_Write_Char>
     6b0:	8a 81       	ldd	r24, Y+2	; 0x02
     6b2:	0e 94 de 01 	call	0x3bc	; 0x3bc <Lcd4_Write_Char>
     6b6:	8b 81       	ldd	r24, Y+3	; 0x03
     6b8:	0e 94 de 01 	call	0x3bc	; 0x3bc <Lcd4_Write_Char>
     6bc:	8f ed       	ldi	r24, 0xDF	; 223
     6be:	0e 94 de 01 	call	0x3bc	; 0x3bc <Lcd4_Write_Char>
     6c2:	83 e4       	ldi	r24, 0x43	; 67
     6c4:	0e 94 de 01 	call	0x3bc	; 0x3bc <Lcd4_Write_Char>
     6c8:	0f 90       	pop	r0
     6ca:	0f 90       	pop	r0
     6cc:	0f 90       	pop	r0
     6ce:	df 91       	pop	r29
     6d0:	cf 91       	pop	r28
     6d2:	08 95       	ret

000006d4 <DisplayMode0>:
     6d4:	0e 94 94 01 	call	0x328	; 0x328 <Lcd4_Clear>
     6d8:	60 e0       	ldi	r22, 0x00	; 0
     6da:	70 e0       	ldi	r23, 0x00	; 0
     6dc:	81 e0       	ldi	r24, 0x01	; 1
     6de:	90 e0       	ldi	r25, 0x00	; 0
     6e0:	0e 94 19 02 	call	0x432	; 0x432 <DisplayDate>
     6e4:	6b e0       	ldi	r22, 0x0B	; 11
     6e6:	70 e0       	ldi	r23, 0x00	; 0
     6e8:	81 e0       	ldi	r24, 0x01	; 1
     6ea:	90 e0       	ldi	r25, 0x00	; 0
     6ec:	0e 94 42 03 	call	0x684	; 0x684 <DisplayTemperature>
     6f0:	60 e0       	ldi	r22, 0x00	; 0
     6f2:	70 e0       	ldi	r23, 0x00	; 0
     6f4:	82 e0       	ldi	r24, 0x02	; 2
     6f6:	90 e0       	ldi	r25, 0x00	; 0
     6f8:	0c 94 d8 02 	jmp	0x5b0	; 0x5b0 <DisplayTime>

000006fc <DisplayMode1>:
     6fc:	0e 94 94 01 	call	0x328	; 0x328 <Lcd4_Clear>
     700:	60 e0       	ldi	r22, 0x00	; 0
     702:	70 e0       	ldi	r23, 0x00	; 0
     704:	81 e0       	ldi	r24, 0x01	; 1
     706:	90 e0       	ldi	r25, 0x00	; 0
     708:	0e 94 19 02 	call	0x432	; 0x432 <DisplayDate>
     70c:	6b e0       	ldi	r22, 0x0B	; 11
     70e:	70 e0       	ldi	r23, 0x00	; 0
     710:	81 e0       	ldi	r24, 0x01	; 1
     712:	90 e0       	ldi	r25, 0x00	; 0
     714:	0e 94 42 03 	call	0x684	; 0x684 <DisplayTemperature>
     718:	60 e0       	ldi	r22, 0x00	; 0
     71a:	70 e0       	ldi	r23, 0x00	; 0
     71c:	82 e0       	ldi	r24, 0x02	; 2
     71e:	90 e0       	ldi	r25, 0x00	; 0
     720:	0c 94 6d 02 	jmp	0x4da	; 0x4da <DisplayAlarm>

00000724 <ADC_intialzation>:
     724:	ec e7       	ldi	r30, 0x7C	; 124
     726:	f0 e0       	ldi	r31, 0x00	; 0
     728:	80 81       	ld	r24, Z
     72a:	80 6c       	ori	r24, 0xC0	; 192
     72c:	80 83       	st	Z, r24
     72e:	80 81       	ld	r24, Z
     730:	85 60       	ori	r24, 0x05	; 5
     732:	80 83       	st	Z, r24
     734:	ea e7       	ldi	r30, 0x7A	; 122
     736:	f0 e0       	ldi	r31, 0x00	; 0
     738:	80 81       	ld	r24, Z
     73a:	87 6a       	ori	r24, 0xA7	; 167
     73c:	80 83       	st	Z, r24
     73e:	08 95       	ret

00000740 <CTC_mode>:
     740:	10 92 80 00 	sts	0x0080, r1	; 0x800080 <__TEXT_REGION_LENGTH__+0x7e0080>
     744:	e1 e8       	ldi	r30, 0x81	; 129
     746:	f0 e0       	ldi	r31, 0x00	; 0
     748:	80 81       	ld	r24, Z
     74a:	8c 60       	ori	r24, 0x0C	; 12
     74c:	80 83       	st	Z, r24
     74e:	88 e0       	ldi	r24, 0x08	; 8
     750:	95 e0       	ldi	r25, 0x05	; 5
     752:	90 93 89 00 	sts	0x0089, r25	; 0x800089 <__TEXT_REGION_LENGTH__+0x7e0089>
     756:	80 93 88 00 	sts	0x0088, r24	; 0x800088 <__TEXT_REGION_LENGTH__+0x7e0088>
     75a:	ef e6       	ldi	r30, 0x6F	; 111
     75c:	f0 e0       	ldi	r31, 0x00	; 0
     75e:	80 81       	ld	r24, Z
     760:	82 60       	ori	r24, 0x02	; 2
     762:	80 83       	st	Z, r24
     764:	78 94       	sei
     766:	08 95       	ret

00000768 <AdjustAlarm>:
     768:	8f 92       	push	r8
     76a:	9f 92       	push	r9
     76c:	af 92       	push	r10
     76e:	bf 92       	push	r11
     770:	cf 92       	push	r12
     772:	df 92       	push	r13
     774:	ef 92       	push	r14
     776:	ff 92       	push	r15
     778:	81 e0       	ldi	r24, 0x01	; 1
     77a:	90 e0       	ldi	r25, 0x00	; 0
     77c:	90 93 29 01 	sts	0x0129, r25	; 0x800129 <alarm_state+0x1>
     780:	80 93 28 01 	sts	0x0128, r24	; 0x800128 <alarm_state>
     784:	c0 90 2a 01 	lds	r12, 0x012A	; 0x80012a <alarm_value>
     788:	d0 90 2b 01 	lds	r13, 0x012B	; 0x80012b <alarm_value+0x1>
     78c:	e0 90 2c 01 	lds	r14, 0x012C	; 0x80012c <alarm_value+0x2>
     790:	f0 90 2d 01 	lds	r15, 0x012D	; 0x80012d <alarm_value+0x3>
     794:	c7 01       	movw	r24, r14
     796:	b6 01       	movw	r22, r12
     798:	20 e1       	ldi	r18, 0x10	; 16
     79a:	3e e0       	ldi	r19, 0x0E	; 14
     79c:	40 e0       	ldi	r20, 0x00	; 0
     79e:	50 e0       	ldi	r21, 0x00	; 0
     7a0:	0e 94 25 09 	call	0x124a	; 0x124a <__udivmodsi4>
     7a4:	ca 01       	movw	r24, r20
     7a6:	b9 01       	movw	r22, r18
     7a8:	2d e0       	ldi	r18, 0x0D	; 13
     7aa:	30 e0       	ldi	r19, 0x00	; 0
     7ac:	40 e0       	ldi	r20, 0x00	; 0
     7ae:	50 e0       	ldi	r21, 0x00	; 0
     7b0:	0e 94 25 09 	call	0x124a	; 0x124a <__udivmodsi4>
     7b4:	70 93 01 01 	sts	0x0101, r23	; 0x800101 <__data_start+0x1>
     7b8:	60 93 00 01 	sts	0x0100, r22	; 0x800100 <__data_start>
     7bc:	c7 01       	movw	r24, r14
     7be:	b6 01       	movw	r22, r12
     7c0:	2c e3       	ldi	r18, 0x3C	; 60
     7c2:	30 e0       	ldi	r19, 0x00	; 0
     7c4:	40 e0       	ldi	r20, 0x00	; 0
     7c6:	50 e0       	ldi	r21, 0x00	; 0
     7c8:	0e 94 25 09 	call	0x124a	; 0x124a <__udivmodsi4>
     7cc:	8d e3       	ldi	r24, 0x3D	; 61
     7ce:	88 2e       	mov	r8, r24
     7d0:	91 2c       	mov	r9, r1
     7d2:	a1 2c       	mov	r10, r1
     7d4:	b1 2c       	mov	r11, r1
     7d6:	ca 01       	movw	r24, r20
     7d8:	b9 01       	movw	r22, r18
     7da:	a5 01       	movw	r20, r10
     7dc:	94 01       	movw	r18, r8
     7de:	0e 94 25 09 	call	0x124a	; 0x124a <__udivmodsi4>
     7e2:	70 93 25 01 	sts	0x0125, r23	; 0x800125 <alarm_minute+0x1>
     7e6:	60 93 24 01 	sts	0x0124, r22	; 0x800124 <alarm_minute>
     7ea:	c7 01       	movw	r24, r14
     7ec:	b6 01       	movw	r22, r12
     7ee:	a5 01       	movw	r20, r10
     7f0:	94 01       	movw	r18, r8
     7f2:	0e 94 25 09 	call	0x124a	; 0x124a <__udivmodsi4>
     7f6:	70 93 23 01 	sts	0x0123, r23	; 0x800123 <__data_end+0x1>
     7fa:	60 93 22 01 	sts	0x0122, r22	; 0x800122 <__data_end>
     7fe:	ff 90       	pop	r15
     800:	ef 90       	pop	r14
     802:	df 90       	pop	r13
     804:	cf 90       	pop	r12
     806:	bf 90       	pop	r11
     808:	af 90       	pop	r10
     80a:	9f 90       	pop	r9
     80c:	8f 90       	pop	r8
     80e:	08 95       	ret

00000810 <CancelAlarm>:
     810:	10 92 27 01 	sts	0x0127, r1	; 0x800127 <fire_alarm+0x1>
     814:	10 92 26 01 	sts	0x0126, r1	; 0x800126 <fire_alarm>
     818:	10 92 29 01 	sts	0x0129, r1	; 0x800129 <alarm_state+0x1>
     81c:	10 92 28 01 	sts	0x0128, r1	; 0x800128 <alarm_state>
     820:	2b 98       	cbi	0x05, 3	; 5
     822:	08 95       	ret

00000824 <buzzer>:
     824:	2b 9a       	sbi	0x05, 3	; 5
     826:	08 95       	ret

00000828 <UpdateTime>:
     828:	8f 92       	push	r8
     82a:	9f 92       	push	r9
     82c:	af 92       	push	r10
     82e:	bf 92       	push	r11
     830:	cf 92       	push	r12
     832:	df 92       	push	r13
     834:	ef 92       	push	r14
     836:	ff 92       	push	r15
     838:	0f 93       	push	r16
     83a:	1f 93       	push	r17
     83c:	60 91 32 01 	lds	r22, 0x0132	; 0x800132 <time>
     840:	70 91 33 01 	lds	r23, 0x0133	; 0x800133 <time+0x1>
     844:	80 91 34 01 	lds	r24, 0x0134	; 0x800134 <time+0x2>
     848:	90 91 35 01 	lds	r25, 0x0135	; 0x800135 <time+0x3>
     84c:	21 e8       	ldi	r18, 0x81	; 129
     84e:	31 e5       	ldi	r19, 0x51	; 81
     850:	41 e0       	ldi	r20, 0x01	; 1
     852:	50 e0       	ldi	r21, 0x00	; 0
     854:	0e 94 25 09 	call	0x124a	; 0x124a <__udivmodsi4>
     858:	6b 01       	movw	r12, r22
     85a:	7c 01       	movw	r14, r24
     85c:	60 93 32 01 	sts	0x0132, r22	; 0x800132 <time>
     860:	70 93 33 01 	sts	0x0133, r23	; 0x800133 <time+0x1>
     864:	80 93 34 01 	sts	0x0134, r24	; 0x800134 <time+0x2>
     868:	90 93 35 01 	sts	0x0135, r25	; 0x800135 <time+0x3>
     86c:	20 e1       	ldi	r18, 0x10	; 16
     86e:	3e e0       	ldi	r19, 0x0E	; 14
     870:	40 e0       	ldi	r20, 0x00	; 0
     872:	50 e0       	ldi	r21, 0x00	; 0
     874:	0e 94 25 09 	call	0x124a	; 0x124a <__udivmodsi4>
     878:	ca 01       	movw	r24, r20
     87a:	b9 01       	movw	r22, r18
     87c:	2c e0       	ldi	r18, 0x0C	; 12
     87e:	30 e0       	ldi	r19, 0x00	; 0
     880:	40 e0       	ldi	r20, 0x00	; 0
     882:	50 e0       	ldi	r21, 0x00	; 0
     884:	0e 94 25 09 	call	0x124a	; 0x124a <__udivmodsi4>
     888:	6f 5f       	subi	r22, 0xFF	; 255
     88a:	7f 4f       	sbci	r23, 0xFF	; 255
     88c:	8f 4f       	sbci	r24, 0xFF	; 255
     88e:	9f 4f       	sbci	r25, 0xFF	; 255
     890:	80 90 0c 01 	lds	r8, 0x010C	; 0x80010c <hour>
     894:	90 90 0d 01 	lds	r9, 0x010D	; 0x80010d <hour+0x1>
     898:	a1 2c       	mov	r10, r1
     89a:	b1 2c       	mov	r11, r1
     89c:	68 15       	cp	r22, r8
     89e:	79 05       	cpc	r23, r9
     8a0:	8a 05       	cpc	r24, r10
     8a2:	9b 05       	cpc	r25, r11
     8a4:	d9 f0       	breq	.+54     	; 0x8dc <UpdateTime+0xb4>
     8a6:	2d e0       	ldi	r18, 0x0D	; 13
     8a8:	30 e0       	ldi	r19, 0x00	; 0
     8aa:	40 e0       	ldi	r20, 0x00	; 0
     8ac:	50 e0       	ldi	r21, 0x00	; 0
     8ae:	0e 94 25 09 	call	0x124a	; 0x124a <__udivmodsi4>
     8b2:	70 93 0d 01 	sts	0x010D, r23	; 0x80010d <hour+0x1>
     8b6:	60 93 0c 01 	sts	0x010C, r22	; 0x80010c <hour>
     8ba:	6c 30       	cpi	r22, 0x0C	; 12
     8bc:	71 05       	cpc	r23, r1
     8be:	71 f4       	brne	.+28     	; 0x8dc <UpdateTime+0xb4>
     8c0:	81 e0       	ldi	r24, 0x01	; 1
     8c2:	90 e0       	ldi	r25, 0x00	; 0
     8c4:	20 91 40 01 	lds	r18, 0x0140	; 0x800140 <am_pm_t>
     8c8:	30 91 41 01 	lds	r19, 0x0141	; 0x800141 <am_pm_t+0x1>
     8cc:	23 2b       	or	r18, r19
     8ce:	11 f0       	breq	.+4      	; 0x8d4 <UpdateTime+0xac>
     8d0:	80 e0       	ldi	r24, 0x00	; 0
     8d2:	90 e0       	ldi	r25, 0x00	; 0
     8d4:	90 93 41 01 	sts	0x0141, r25	; 0x800141 <am_pm_t+0x1>
     8d8:	80 93 40 01 	sts	0x0140, r24	; 0x800140 <am_pm_t>
     8dc:	8c e3       	ldi	r24, 0x3C	; 60
     8de:	88 2e       	mov	r8, r24
     8e0:	91 2c       	mov	r9, r1
     8e2:	a1 2c       	mov	r10, r1
     8e4:	b1 2c       	mov	r11, r1
     8e6:	c7 01       	movw	r24, r14
     8e8:	b6 01       	movw	r22, r12
     8ea:	a5 01       	movw	r20, r10
     8ec:	94 01       	movw	r18, r8
     8ee:	0e 94 25 09 	call	0x124a	; 0x124a <__udivmodsi4>
     8f2:	ca 01       	movw	r24, r20
     8f4:	b9 01       	movw	r22, r18
     8f6:	a5 01       	movw	r20, r10
     8f8:	94 01       	movw	r18, r8
     8fa:	0e 94 25 09 	call	0x124a	; 0x124a <__udivmodsi4>
     8fe:	20 91 30 01 	lds	r18, 0x0130	; 0x800130 <minute>
     902:	30 91 31 01 	lds	r19, 0x0131	; 0x800131 <minute+0x1>
     906:	89 01       	movw	r16, r18
     908:	20 e0       	ldi	r18, 0x00	; 0
     90a:	30 e0       	ldi	r19, 0x00	; 0
     90c:	60 17       	cp	r22, r16
     90e:	71 07       	cpc	r23, r17
     910:	82 07       	cpc	r24, r18
     912:	93 07       	cpc	r25, r19
     914:	41 f0       	breq	.+16     	; 0x926 <__stack+0x27>
     916:	a5 01       	movw	r20, r10
     918:	94 01       	movw	r18, r8
     91a:	0e 94 25 09 	call	0x124a	; 0x124a <__udivmodsi4>
     91e:	70 93 31 01 	sts	0x0131, r23	; 0x800131 <minute+0x1>
     922:	60 93 30 01 	sts	0x0130, r22	; 0x800130 <minute>
     926:	c7 01       	movw	r24, r14
     928:	b6 01       	movw	r22, r12
     92a:	2c e3       	ldi	r18, 0x3C	; 60
     92c:	30 e0       	ldi	r19, 0x00	; 0
     92e:	40 e0       	ldi	r20, 0x00	; 0
     930:	50 e0       	ldi	r21, 0x00	; 0
     932:	0e 94 25 09 	call	0x124a	; 0x124a <__udivmodsi4>
     936:	70 93 2f 01 	sts	0x012F, r23	; 0x80012f <second+0x1>
     93a:	60 93 2e 01 	sts	0x012E, r22	; 0x80012e <second>
     93e:	1f 91       	pop	r17
     940:	0f 91       	pop	r16
     942:	ff 90       	pop	r15
     944:	ef 90       	pop	r14
     946:	df 90       	pop	r13
     948:	cf 90       	pop	r12
     94a:	bf 90       	pop	r11
     94c:	af 90       	pop	r10
     94e:	9f 90       	pop	r9
     950:	8f 90       	pop	r8
     952:	08 95       	ret

00000954 <UpdateDate>:
     954:	cf 92       	push	r12
     956:	df 92       	push	r13
     958:	ef 92       	push	r14
     95a:	ff 92       	push	r15
     95c:	60 91 32 01 	lds	r22, 0x0132	; 0x800132 <time>
     960:	70 91 33 01 	lds	r23, 0x0133	; 0x800133 <time+0x1>
     964:	80 91 34 01 	lds	r24, 0x0134	; 0x800134 <time+0x2>
     968:	90 91 35 01 	lds	r25, 0x0135	; 0x800135 <time+0x3>
     96c:	20 e8       	ldi	r18, 0x80	; 128
     96e:	31 e5       	ldi	r19, 0x51	; 81
     970:	41 e0       	ldi	r20, 0x01	; 1
     972:	50 e0       	ldi	r21, 0x00	; 0
     974:	0e 94 25 09 	call	0x124a	; 0x124a <__udivmodsi4>
     978:	80 91 08 01 	lds	r24, 0x0108	; 0x800108 <days>
     97c:	90 91 09 01 	lds	r25, 0x0109	; 0x800109 <days+0x1>
     980:	a0 91 0a 01 	lds	r26, 0x010A	; 0x80010a <days+0x2>
     984:	b0 91 0b 01 	lds	r27, 0x010B	; 0x80010b <days+0x3>
     988:	bc 01       	movw	r22, r24
     98a:	cd 01       	movw	r24, r26
     98c:	62 0f       	add	r22, r18
     98e:	73 1f       	adc	r23, r19
     990:	84 1f       	adc	r24, r20
     992:	95 1f       	adc	r25, r21
     994:	20 ee       	ldi	r18, 0xE0	; 224
     996:	33 e2       	ldi	r19, 0x23	; 35
     998:	4b e0       	ldi	r20, 0x0B	; 11
     99a:	50 e0       	ldi	r21, 0x00	; 0
     99c:	0e 94 25 09 	call	0x124a	; 0x124a <__udivmodsi4>
     9a0:	6b 01       	movw	r12, r22
     9a2:	7c 01       	movw	r14, r24
     9a4:	60 93 08 01 	sts	0x0108, r22	; 0x800108 <days>
     9a8:	70 93 09 01 	sts	0x0109, r23	; 0x800109 <days+0x1>
     9ac:	80 93 0a 01 	sts	0x010A, r24	; 0x80010a <days+0x2>
     9b0:	90 93 0b 01 	sts	0x010B, r25	; 0x80010b <days+0x3>
     9b4:	28 e6       	ldi	r18, 0x68	; 104
     9b6:	31 e0       	ldi	r19, 0x01	; 1
     9b8:	40 e0       	ldi	r20, 0x00	; 0
     9ba:	50 e0       	ldi	r21, 0x00	; 0
     9bc:	0e 94 25 09 	call	0x124a	; 0x124a <__udivmodsi4>
     9c0:	30 93 05 01 	sts	0x0105, r19	; 0x800105 <year+0x1>
     9c4:	20 93 04 01 	sts	0x0104, r18	; 0x800104 <year>
     9c8:	c7 01       	movw	r24, r14
     9ca:	b6 01       	movw	r22, r12
     9cc:	2e e1       	ldi	r18, 0x1E	; 30
     9ce:	30 e0       	ldi	r19, 0x00	; 0
     9d0:	40 e0       	ldi	r20, 0x00	; 0
     9d2:	50 e0       	ldi	r21, 0x00	; 0
     9d4:	0e 94 25 09 	call	0x124a	; 0x124a <__udivmodsi4>
     9d8:	6b 01       	movw	r12, r22
     9da:	7c 01       	movw	r14, r24
     9dc:	ca 01       	movw	r24, r20
     9de:	b9 01       	movw	r22, r18
     9e0:	2c e0       	ldi	r18, 0x0C	; 12
     9e2:	30 e0       	ldi	r19, 0x00	; 0
     9e4:	40 e0       	ldi	r20, 0x00	; 0
     9e6:	50 e0       	ldi	r21, 0x00	; 0
     9e8:	0e 94 25 09 	call	0x124a	; 0x124a <__udivmodsi4>
     9ec:	6f 5f       	subi	r22, 0xFF	; 255
     9ee:	7f 4f       	sbci	r23, 0xFF	; 255
     9f0:	70 93 03 01 	sts	0x0103, r23	; 0x800103 <month+0x1>
     9f4:	60 93 02 01 	sts	0x0102, r22	; 0x800102 <month>
     9f8:	8f ef       	ldi	r24, 0xFF	; 255
     9fa:	c8 1a       	sub	r12, r24
     9fc:	d8 0a       	sbc	r13, r24
     9fe:	d0 92 07 01 	sts	0x0107, r13	; 0x800107 <day+0x1>
     a02:	c0 92 06 01 	sts	0x0106, r12	; 0x800106 <day>
     a06:	ff 90       	pop	r15
     a08:	ef 90       	pop	r14
     a0a:	df 90       	pop	r13
     a0c:	cf 90       	pop	r12
     a0e:	08 95       	ret

00000a10 <UpdateAlarm>:
     a10:	8f 92       	push	r8
     a12:	9f 92       	push	r9
     a14:	af 92       	push	r10
     a16:	bf 92       	push	r11
     a18:	cf 92       	push	r12
     a1a:	df 92       	push	r13
     a1c:	ef 92       	push	r14
     a1e:	ff 92       	push	r15
     a20:	60 91 2a 01 	lds	r22, 0x012A	; 0x80012a <alarm_value>
     a24:	70 91 2b 01 	lds	r23, 0x012B	; 0x80012b <alarm_value+0x1>
     a28:	80 91 2c 01 	lds	r24, 0x012C	; 0x80012c <alarm_value+0x2>
     a2c:	90 91 2d 01 	lds	r25, 0x012D	; 0x80012d <alarm_value+0x3>
     a30:	20 e8       	ldi	r18, 0x80	; 128
     a32:	31 e5       	ldi	r19, 0x51	; 81
     a34:	41 e0       	ldi	r20, 0x01	; 1
     a36:	50 e0       	ldi	r21, 0x00	; 0
     a38:	0e 94 25 09 	call	0x124a	; 0x124a <__udivmodsi4>
     a3c:	6b 01       	movw	r12, r22
     a3e:	7c 01       	movw	r14, r24
     a40:	60 93 2a 01 	sts	0x012A, r22	; 0x80012a <alarm_value>
     a44:	70 93 2b 01 	sts	0x012B, r23	; 0x80012b <alarm_value+0x1>
     a48:	80 93 2c 01 	sts	0x012C, r24	; 0x80012c <alarm_value+0x2>
     a4c:	90 93 2d 01 	sts	0x012D, r25	; 0x80012d <alarm_value+0x3>
     a50:	20 e1       	ldi	r18, 0x10	; 16
     a52:	3e e0       	ldi	r19, 0x0E	; 14
     a54:	40 e0       	ldi	r20, 0x00	; 0
     a56:	50 e0       	ldi	r21, 0x00	; 0
     a58:	0e 94 25 09 	call	0x124a	; 0x124a <__udivmodsi4>
     a5c:	49 01       	movw	r8, r18
     a5e:	5a 01       	movw	r10, r20
     a60:	ca 01       	movw	r24, r20
     a62:	b9 01       	movw	r22, r18
     a64:	2c e0       	ldi	r18, 0x0C	; 12
     a66:	30 e0       	ldi	r19, 0x00	; 0
     a68:	40 e0       	ldi	r20, 0x00	; 0
     a6a:	50 e0       	ldi	r21, 0x00	; 0
     a6c:	0e 94 25 09 	call	0x124a	; 0x124a <__udivmodsi4>
     a70:	6f 5f       	subi	r22, 0xFF	; 255
     a72:	7f 4f       	sbci	r23, 0xFF	; 255
     a74:	70 93 01 01 	sts	0x0101, r23	; 0x800101 <__data_start+0x1>
     a78:	60 93 00 01 	sts	0x0100, r22	; 0x800100 <__data_start>
     a7c:	c5 01       	movw	r24, r10
     a7e:	b4 01       	movw	r22, r8
     a80:	2d e0       	ldi	r18, 0x0D	; 13
     a82:	30 e0       	ldi	r19, 0x00	; 0
     a84:	40 e0       	ldi	r20, 0x00	; 0
     a86:	50 e0       	ldi	r21, 0x00	; 0
     a88:	0e 94 25 09 	call	0x124a	; 0x124a <__udivmodsi4>
     a8c:	6c 30       	cpi	r22, 0x0C	; 12
     a8e:	71 05       	cpc	r23, r1
     a90:	81 05       	cpc	r24, r1
     a92:	91 05       	cpc	r25, r1
     a94:	71 f4       	brne	.+28     	; 0xab2 <UpdateAlarm+0xa2>
     a96:	81 e0       	ldi	r24, 0x01	; 1
     a98:	90 e0       	ldi	r25, 0x00	; 0
     a9a:	20 91 3e 01 	lds	r18, 0x013E	; 0x80013e <am_pm_a>
     a9e:	30 91 3f 01 	lds	r19, 0x013F	; 0x80013f <am_pm_a+0x1>
     aa2:	23 2b       	or	r18, r19
     aa4:	11 f0       	breq	.+4      	; 0xaaa <UpdateAlarm+0x9a>
     aa6:	80 e0       	ldi	r24, 0x00	; 0
     aa8:	90 e0       	ldi	r25, 0x00	; 0
     aaa:	90 93 3f 01 	sts	0x013F, r25	; 0x80013f <am_pm_a+0x1>
     aae:	80 93 3e 01 	sts	0x013E, r24	; 0x80013e <am_pm_a>
     ab2:	8c e3       	ldi	r24, 0x3C	; 60
     ab4:	88 2e       	mov	r8, r24
     ab6:	91 2c       	mov	r9, r1
     ab8:	a1 2c       	mov	r10, r1
     aba:	b1 2c       	mov	r11, r1
     abc:	c7 01       	movw	r24, r14
     abe:	b6 01       	movw	r22, r12
     ac0:	a5 01       	movw	r20, r10
     ac2:	94 01       	movw	r18, r8
     ac4:	0e 94 25 09 	call	0x124a	; 0x124a <__udivmodsi4>
     ac8:	6b 01       	movw	r12, r22
     aca:	7c 01       	movw	r14, r24
     acc:	ca 01       	movw	r24, r20
     ace:	b9 01       	movw	r22, r18
     ad0:	a5 01       	movw	r20, r10
     ad2:	94 01       	movw	r18, r8
     ad4:	0e 94 25 09 	call	0x124a	; 0x124a <__udivmodsi4>
     ad8:	70 93 25 01 	sts	0x0125, r23	; 0x800125 <alarm_minute+0x1>
     adc:	60 93 24 01 	sts	0x0124, r22	; 0x800124 <alarm_minute>
     ae0:	d0 92 23 01 	sts	0x0123, r13	; 0x800123 <__data_end+0x1>
     ae4:	c0 92 22 01 	sts	0x0122, r12	; 0x800122 <__data_end>
     ae8:	ff 90       	pop	r15
     aea:	ef 90       	pop	r14
     aec:	df 90       	pop	r13
     aee:	cf 90       	pop	r12
     af0:	bf 90       	pop	r11
     af2:	af 90       	pop	r10
     af4:	9f 90       	pop	r9
     af6:	8f 90       	pop	r8
     af8:	08 95       	ret

00000afa <UpdateLCD>:
     afa:	80 91 3c 01 	lds	r24, 0x013C	; 0x80013c <mode>
     afe:	90 91 3d 01 	lds	r25, 0x013D	; 0x80013d <mode+0x1>
     b02:	00 97       	sbiw	r24, 0x00	; 0
     b04:	11 f4       	brne	.+4      	; 0xb0a <UpdateLCD+0x10>
     b06:	0c 94 6a 03 	jmp	0x6d4	; 0x6d4 <DisplayMode0>
     b0a:	01 97       	sbiw	r24, 0x01	; 1
     b0c:	11 f4       	brne	.+4      	; 0xb12 <UpdateLCD+0x18>
     b0e:	0c 94 7e 03 	jmp	0x6fc	; 0x6fc <DisplayMode1>
     b12:	08 95       	ret

00000b14 <__vector_1>:
     b14:	1f 92       	push	r1
     b16:	0f 92       	push	r0
     b18:	0f b6       	in	r0, 0x3f	; 63
     b1a:	0f 92       	push	r0
     b1c:	11 24       	eor	r1, r1
     b1e:	2f 93       	push	r18
     b20:	3f 93       	push	r19
     b22:	4f 93       	push	r20
     b24:	5f 93       	push	r21
     b26:	6f 93       	push	r22
     b28:	7f 93       	push	r23
     b2a:	8f 93       	push	r24
     b2c:	9f 93       	push	r25
     b2e:	af 93       	push	r26
     b30:	bf 93       	push	r27
     b32:	ef 93       	push	r30
     b34:	ff 93       	push	r31
     b36:	80 91 26 01 	lds	r24, 0x0126	; 0x800126 <fire_alarm>
     b3a:	90 91 27 01 	lds	r25, 0x0127	; 0x800127 <fire_alarm+0x1>
     b3e:	01 97       	sbiw	r24, 0x01	; 1
     b40:	11 f4       	brne	.+4      	; 0xb46 <__vector_1+0x32>
     b42:	0e 94 08 04 	call	0x810	; 0x810 <CancelAlarm>
     b46:	80 91 3c 01 	lds	r24, 0x013C	; 0x80013c <mode>
     b4a:	90 91 3d 01 	lds	r25, 0x013D	; 0x80013d <mode+0x1>
     b4e:	01 96       	adiw	r24, 0x01	; 1
     b50:	60 91 0e 01 	lds	r22, 0x010E	; 0x80010e <n_modes>
     b54:	70 91 0f 01 	lds	r23, 0x010F	; 0x80010f <n_modes+0x1>
     b58:	0e 94 11 09 	call	0x1222	; 0x1222 <__udivmodhi4>
     b5c:	90 93 3d 01 	sts	0x013D, r25	; 0x80013d <mode+0x1>
     b60:	80 93 3c 01 	sts	0x013C, r24	; 0x80013c <mode>
     b64:	10 92 39 01 	sts	0x0139, r1	; 0x800139 <toggle_count+0x1>
     b68:	10 92 38 01 	sts	0x0138, r1	; 0x800138 <toggle_count>
     b6c:	ff 91       	pop	r31
     b6e:	ef 91       	pop	r30
     b70:	bf 91       	pop	r27
     b72:	af 91       	pop	r26
     b74:	9f 91       	pop	r25
     b76:	8f 91       	pop	r24
     b78:	7f 91       	pop	r23
     b7a:	6f 91       	pop	r22
     b7c:	5f 91       	pop	r21
     b7e:	4f 91       	pop	r20
     b80:	3f 91       	pop	r19
     b82:	2f 91       	pop	r18
     b84:	0f 90       	pop	r0
     b86:	0f be       	out	0x3f, r0	; 63
     b88:	0f 90       	pop	r0
     b8a:	1f 90       	pop	r1
     b8c:	18 95       	reti

00000b8e <__vector_2>:
     b8e:	1f 92       	push	r1
     b90:	0f 92       	push	r0
     b92:	0f b6       	in	r0, 0x3f	; 63
     b94:	0f 92       	push	r0
     b96:	11 24       	eor	r1, r1
     b98:	2f 93       	push	r18
     b9a:	3f 93       	push	r19
     b9c:	4f 93       	push	r20
     b9e:	5f 93       	push	r21
     ba0:	6f 93       	push	r22
     ba2:	7f 93       	push	r23
     ba4:	8f 93       	push	r24
     ba6:	9f 93       	push	r25
     ba8:	af 93       	push	r26
     baa:	bf 93       	push	r27
     bac:	ef 93       	push	r30
     bae:	ff 93       	push	r31
     bb0:	80 91 26 01 	lds	r24, 0x0126	; 0x800126 <fire_alarm>
     bb4:	90 91 27 01 	lds	r25, 0x0127	; 0x800127 <fire_alarm+0x1>
     bb8:	01 97       	sbiw	r24, 0x01	; 1
     bba:	11 f4       	brne	.+4      	; 0xbc0 <__vector_2+0x32>
     bbc:	0e 94 08 04 	call	0x810	; 0x810 <CancelAlarm>
     bc0:	80 91 3c 01 	lds	r24, 0x013C	; 0x80013c <mode>
     bc4:	90 91 3d 01 	lds	r25, 0x013D	; 0x80013d <mode+0x1>
     bc8:	00 97       	sbiw	r24, 0x00	; 0
     bca:	29 f0       	breq	.+10     	; 0xbd6 <__vector_2+0x48>
     bcc:	01 97       	sbiw	r24, 0x01	; 1
     bce:	49 f4       	brne	.+18     	; 0xbe2 <__vector_2+0x54>
     bd0:	86 e0       	ldi	r24, 0x06	; 6
     bd2:	90 e0       	ldi	r25, 0x00	; 0
     bd4:	02 c0       	rjmp	.+4      	; 0xbda <__vector_2+0x4c>
     bd6:	88 e0       	ldi	r24, 0x08	; 8
     bd8:	90 e0       	ldi	r25, 0x00	; 0
     bda:	90 93 3b 01 	sts	0x013B, r25	; 0x80013b <n_toggles+0x1>
     bde:	80 93 3a 01 	sts	0x013A, r24	; 0x80013a <n_toggles>
     be2:	80 91 38 01 	lds	r24, 0x0138	; 0x800138 <toggle_count>
     be6:	90 91 39 01 	lds	r25, 0x0139	; 0x800139 <toggle_count+0x1>
     bea:	01 96       	adiw	r24, 0x01	; 1
     bec:	60 91 3a 01 	lds	r22, 0x013A	; 0x80013a <n_toggles>
     bf0:	70 91 3b 01 	lds	r23, 0x013B	; 0x80013b <n_toggles+0x1>
     bf4:	0e 94 11 09 	call	0x1222	; 0x1222 <__udivmodhi4>
     bf8:	90 93 39 01 	sts	0x0139, r25	; 0x800139 <toggle_count+0x1>
     bfc:	80 93 38 01 	sts	0x0138, r24	; 0x800138 <toggle_count>
     c00:	ff 91       	pop	r31
     c02:	ef 91       	pop	r30
     c04:	bf 91       	pop	r27
     c06:	af 91       	pop	r26
     c08:	9f 91       	pop	r25
     c0a:	8f 91       	pop	r24
     c0c:	7f 91       	pop	r23
     c0e:	6f 91       	pop	r22
     c10:	5f 91       	pop	r21
     c12:	4f 91       	pop	r20
     c14:	3f 91       	pop	r19
     c16:	2f 91       	pop	r18
     c18:	0f 90       	pop	r0
     c1a:	0f be       	out	0x3f, r0	; 63
     c1c:	0f 90       	pop	r0
     c1e:	1f 90       	pop	r1
     c20:	18 95       	reti

00000c22 <__vector_5>:
     c22:	1f 92       	push	r1
     c24:	0f 92       	push	r0
     c26:	0f b6       	in	r0, 0x3f	; 63
     c28:	0f 92       	push	r0
     c2a:	11 24       	eor	r1, r1
     c2c:	2f 93       	push	r18
     c2e:	3f 93       	push	r19
     c30:	4f 93       	push	r20
     c32:	5f 93       	push	r21
     c34:	6f 93       	push	r22
     c36:	7f 93       	push	r23
     c38:	8f 93       	push	r24
     c3a:	9f 93       	push	r25
     c3c:	af 93       	push	r26
     c3e:	bf 93       	push	r27
     c40:	ef 93       	push	r30
     c42:	ff 93       	push	r31
     c44:	80 91 26 01 	lds	r24, 0x0126	; 0x800126 <fire_alarm>
     c48:	90 91 27 01 	lds	r25, 0x0127	; 0x800127 <fire_alarm+0x1>
     c4c:	01 97       	sbiw	r24, 0x01	; 1
     c4e:	11 f4       	brne	.+4      	; 0xc54 <__vector_5+0x32>
     c50:	0e 94 08 04 	call	0x810	; 0x810 <CancelAlarm>
     c54:	80 91 3c 01 	lds	r24, 0x013C	; 0x80013c <mode>
     c58:	90 91 3d 01 	lds	r25, 0x013D	; 0x80013d <mode+0x1>
     c5c:	00 97       	sbiw	r24, 0x00	; 0
     c5e:	09 f0       	breq	.+2      	; 0xc62 <__vector_5+0x40>
     c60:	7a c0       	rjmp	.+244    	; 0xd56 <__vector_5+0x134>
     c62:	e0 91 38 01 	lds	r30, 0x0138	; 0x800138 <toggle_count>
     c66:	f0 91 39 01 	lds	r31, 0x0139	; 0x800139 <toggle_count+0x1>
     c6a:	31 97       	sbiw	r30, 0x01	; 1
     c6c:	e7 30       	cpi	r30, 0x07	; 7
     c6e:	f1 05       	cpc	r31, r1
     c70:	08 f0       	brcs	.+2      	; 0xc74 <__vector_5+0x52>
     c72:	6c c0       	rjmp	.+216    	; 0xd4c <__vector_5+0x12a>
     c74:	ec 5c       	subi	r30, 0xCC	; 204
     c76:	ff 4f       	sbci	r31, 0xFF	; 255
     c78:	0c 94 47 09 	jmp	0x128e	; 0x128e <__tablejump2__>
     c7c:	80 91 32 01 	lds	r24, 0x0132	; 0x800132 <time>
     c80:	90 91 33 01 	lds	r25, 0x0133	; 0x800133 <time+0x1>
     c84:	a0 91 34 01 	lds	r26, 0x0134	; 0x800134 <time+0x2>
     c88:	b0 91 35 01 	lds	r27, 0x0135	; 0x800135 <time+0x3>
     c8c:	80 5f       	subi	r24, 0xF0	; 240
     c8e:	91 4f       	sbci	r25, 0xF1	; 241
     c90:	af 4f       	sbci	r26, 0xFF	; 255
     c92:	bf 4f       	sbci	r27, 0xFF	; 255
     c94:	0b c0       	rjmp	.+22     	; 0xcac <__vector_5+0x8a>
     c96:	80 91 32 01 	lds	r24, 0x0132	; 0x800132 <time>
     c9a:	90 91 33 01 	lds	r25, 0x0133	; 0x800133 <time+0x1>
     c9e:	a0 91 34 01 	lds	r26, 0x0134	; 0x800134 <time+0x2>
     ca2:	b0 91 35 01 	lds	r27, 0x0135	; 0x800135 <time+0x3>
     ca6:	cc 96       	adiw	r24, 0x3c	; 60
     ca8:	a1 1d       	adc	r26, r1
     caa:	b1 1d       	adc	r27, r1
     cac:	80 93 32 01 	sts	0x0132, r24	; 0x800132 <time>
     cb0:	90 93 33 01 	sts	0x0133, r25	; 0x800133 <time+0x1>
     cb4:	a0 93 34 01 	sts	0x0134, r26	; 0x800134 <time+0x2>
     cb8:	b0 93 35 01 	sts	0x0135, r27	; 0x800135 <time+0x3>
     cbc:	47 c0       	rjmp	.+142    	; 0xd4c <__vector_5+0x12a>
     cbe:	80 91 32 01 	lds	r24, 0x0132	; 0x800132 <time>
     cc2:	90 91 33 01 	lds	r25, 0x0133	; 0x800133 <time+0x1>
     cc6:	a0 91 34 01 	lds	r26, 0x0134	; 0x800134 <time+0x2>
     cca:	b0 91 35 01 	lds	r27, 0x0135	; 0x800135 <time+0x3>
     cce:	01 96       	adiw	r24, 0x01	; 1
     cd0:	a1 1d       	adc	r26, r1
     cd2:	b1 1d       	adc	r27, r1
     cd4:	eb cf       	rjmp	.-42     	; 0xcac <__vector_5+0x8a>
     cd6:	81 e0       	ldi	r24, 0x01	; 1
     cd8:	90 e0       	ldi	r25, 0x00	; 0
     cda:	20 91 40 01 	lds	r18, 0x0140	; 0x800140 <am_pm_t>
     cde:	30 91 41 01 	lds	r19, 0x0141	; 0x800141 <am_pm_t+0x1>
     ce2:	23 2b       	or	r18, r19
     ce4:	11 f0       	breq	.+4      	; 0xcea <__vector_5+0xc8>
     ce6:	80 e0       	ldi	r24, 0x00	; 0
     ce8:	90 e0       	ldi	r25, 0x00	; 0
     cea:	90 93 41 01 	sts	0x0141, r25	; 0x800141 <am_pm_t+0x1>
     cee:	80 93 40 01 	sts	0x0140, r24	; 0x800140 <am_pm_t>
     cf2:	2c c0       	rjmp	.+88     	; 0xd4c <__vector_5+0x12a>
     cf4:	80 91 08 01 	lds	r24, 0x0108	; 0x800108 <days>
     cf8:	90 91 09 01 	lds	r25, 0x0109	; 0x800109 <days+0x1>
     cfc:	a0 91 0a 01 	lds	r26, 0x010A	; 0x80010a <days+0x2>
     d00:	b0 91 0b 01 	lds	r27, 0x010B	; 0x80010b <days+0x3>
     d04:	01 96       	adiw	r24, 0x01	; 1
     d06:	a1 1d       	adc	r26, r1
     d08:	b1 1d       	adc	r27, r1
     d0a:	18 c0       	rjmp	.+48     	; 0xd3c <__vector_5+0x11a>
     d0c:	80 91 08 01 	lds	r24, 0x0108	; 0x800108 <days>
     d10:	90 91 09 01 	lds	r25, 0x0109	; 0x800109 <days+0x1>
     d14:	a0 91 0a 01 	lds	r26, 0x010A	; 0x80010a <days+0x2>
     d18:	b0 91 0b 01 	lds	r27, 0x010B	; 0x80010b <days+0x3>
     d1c:	4e 96       	adiw	r24, 0x1e	; 30
     d1e:	a1 1d       	adc	r26, r1
     d20:	b1 1d       	adc	r27, r1
     d22:	0c c0       	rjmp	.+24     	; 0xd3c <__vector_5+0x11a>
     d24:	80 91 08 01 	lds	r24, 0x0108	; 0x800108 <days>
     d28:	90 91 09 01 	lds	r25, 0x0109	; 0x800109 <days+0x1>
     d2c:	a0 91 0a 01 	lds	r26, 0x010A	; 0x80010a <days+0x2>
     d30:	b0 91 0b 01 	lds	r27, 0x010B	; 0x80010b <days+0x3>
     d34:	88 59       	subi	r24, 0x98	; 152
     d36:	9e 4f       	sbci	r25, 0xFE	; 254
     d38:	af 4f       	sbci	r26, 0xFF	; 255
     d3a:	bf 4f       	sbci	r27, 0xFF	; 255
     d3c:	80 93 08 01 	sts	0x0108, r24	; 0x800108 <days>
     d40:	90 93 09 01 	sts	0x0109, r25	; 0x800109 <days+0x1>
     d44:	a0 93 0a 01 	sts	0x010A, r26	; 0x80010a <days+0x2>
     d48:	b0 93 0b 01 	sts	0x010B, r27	; 0x80010b <days+0x3>
     d4c:	0e 94 aa 04 	call	0x954	; 0x954 <UpdateDate>
     d50:	0e 94 14 04 	call	0x828	; 0x828 <UpdateTime>
     d54:	6e c0       	rjmp	.+220    	; 0xe32 <__vector_5+0x210>
     d56:	01 97       	sbiw	r24, 0x01	; 1
     d58:	09 f0       	breq	.+2      	; 0xd5c <__vector_5+0x13a>
     d5a:	6b c0       	rjmp	.+214    	; 0xe32 <__vector_5+0x210>
     d5c:	80 91 38 01 	lds	r24, 0x0138	; 0x800138 <toggle_count>
     d60:	90 91 39 01 	lds	r25, 0x0139	; 0x800139 <toggle_count+0x1>
     d64:	83 30       	cpi	r24, 0x03	; 3
     d66:	91 05       	cpc	r25, r1
     d68:	31 f1       	breq	.+76     	; 0xdb6 <__vector_5+0x194>
     d6a:	90 f4       	brcc	.+36     	; 0xd90 <__vector_5+0x16e>
     d6c:	81 30       	cpi	r24, 0x01	; 1
     d6e:	91 05       	cpc	r25, r1
     d70:	a9 f0       	breq	.+42     	; 0xd9c <__vector_5+0x17a>
     d72:	02 97       	sbiw	r24, 0x02	; 2
     d74:	09 f0       	breq	.+2      	; 0xd78 <__vector_5+0x156>
     d76:	50 c0       	rjmp	.+160    	; 0xe18 <__vector_5+0x1f6>
     d78:	80 91 2a 01 	lds	r24, 0x012A	; 0x80012a <alarm_value>
     d7c:	90 91 2b 01 	lds	r25, 0x012B	; 0x80012b <alarm_value+0x1>
     d80:	a0 91 2c 01 	lds	r26, 0x012C	; 0x80012c <alarm_value+0x2>
     d84:	b0 91 2d 01 	lds	r27, 0x012D	; 0x80012d <alarm_value+0x3>
     d88:	cc 96       	adiw	r24, 0x3c	; 60
     d8a:	a1 1d       	adc	r26, r1
     d8c:	b1 1d       	adc	r27, r1
     d8e:	1e c0       	rjmp	.+60     	; 0xdcc <__vector_5+0x1aa>
     d90:	84 30       	cpi	r24, 0x04	; 4
     d92:	91 05       	cpc	r25, r1
     d94:	21 f1       	breq	.+72     	; 0xdde <__vector_5+0x1bc>
     d96:	05 97       	sbiw	r24, 0x05	; 5
     d98:	89 f1       	breq	.+98     	; 0xdfc <__vector_5+0x1da>
     d9a:	3e c0       	rjmp	.+124    	; 0xe18 <__vector_5+0x1f6>
     d9c:	80 91 2a 01 	lds	r24, 0x012A	; 0x80012a <alarm_value>
     da0:	90 91 2b 01 	lds	r25, 0x012B	; 0x80012b <alarm_value+0x1>
     da4:	a0 91 2c 01 	lds	r26, 0x012C	; 0x80012c <alarm_value+0x2>
     da8:	b0 91 2d 01 	lds	r27, 0x012D	; 0x80012d <alarm_value+0x3>
     dac:	80 5f       	subi	r24, 0xF0	; 240
     dae:	91 4f       	sbci	r25, 0xF1	; 241
     db0:	af 4f       	sbci	r26, 0xFF	; 255
     db2:	bf 4f       	sbci	r27, 0xFF	; 255
     db4:	0b c0       	rjmp	.+22     	; 0xdcc <__vector_5+0x1aa>
     db6:	80 91 2a 01 	lds	r24, 0x012A	; 0x80012a <alarm_value>
     dba:	90 91 2b 01 	lds	r25, 0x012B	; 0x80012b <alarm_value+0x1>
     dbe:	a0 91 2c 01 	lds	r26, 0x012C	; 0x80012c <alarm_value+0x2>
     dc2:	b0 91 2d 01 	lds	r27, 0x012D	; 0x80012d <alarm_value+0x3>
     dc6:	01 96       	adiw	r24, 0x01	; 1
     dc8:	a1 1d       	adc	r26, r1
     dca:	b1 1d       	adc	r27, r1
     dcc:	80 93 2a 01 	sts	0x012A, r24	; 0x80012a <alarm_value>
     dd0:	90 93 2b 01 	sts	0x012B, r25	; 0x80012b <alarm_value+0x1>
     dd4:	a0 93 2c 01 	sts	0x012C, r26	; 0x80012c <alarm_value+0x2>
     dd8:	b0 93 2d 01 	sts	0x012D, r27	; 0x80012d <alarm_value+0x3>
     ddc:	1d c0       	rjmp	.+58     	; 0xe18 <__vector_5+0x1f6>
     dde:	81 e0       	ldi	r24, 0x01	; 1
     de0:	90 e0       	ldi	r25, 0x00	; 0
     de2:	20 91 3e 01 	lds	r18, 0x013E	; 0x80013e <am_pm_a>
     de6:	30 91 3f 01 	lds	r19, 0x013F	; 0x80013f <am_pm_a+0x1>
     dea:	23 2b       	or	r18, r19
     dec:	11 f0       	breq	.+4      	; 0xdf2 <__vector_5+0x1d0>
     dee:	80 e0       	ldi	r24, 0x00	; 0
     df0:	90 e0       	ldi	r25, 0x00	; 0
     df2:	90 93 3f 01 	sts	0x013F, r25	; 0x80013f <am_pm_a+0x1>
     df6:	80 93 3e 01 	sts	0x013E, r24	; 0x80013e <am_pm_a>
     dfa:	0e c0       	rjmp	.+28     	; 0xe18 <__vector_5+0x1f6>
     dfc:	81 e0       	ldi	r24, 0x01	; 1
     dfe:	90 e0       	ldi	r25, 0x00	; 0
     e00:	20 91 28 01 	lds	r18, 0x0128	; 0x800128 <alarm_state>
     e04:	30 91 29 01 	lds	r19, 0x0129	; 0x800129 <alarm_state+0x1>
     e08:	23 2b       	or	r18, r19
     e0a:	11 f0       	breq	.+4      	; 0xe10 <__vector_5+0x1ee>
     e0c:	80 e0       	ldi	r24, 0x00	; 0
     e0e:	90 e0       	ldi	r25, 0x00	; 0
     e10:	90 93 29 01 	sts	0x0129, r25	; 0x800129 <alarm_state+0x1>
     e14:	80 93 28 01 	sts	0x0128, r24	; 0x800128 <alarm_state>
     e18:	80 91 28 01 	lds	r24, 0x0128	; 0x800128 <alarm_state>
     e1c:	90 91 29 01 	lds	r25, 0x0129	; 0x800129 <alarm_state+0x1>
     e20:	89 2b       	or	r24, r25
     e22:	19 f4       	brne	.+6      	; 0xe2a <__vector_5+0x208>
     e24:	0e 94 08 04 	call	0x810	; 0x810 <CancelAlarm>
     e28:	02 c0       	rjmp	.+4      	; 0xe2e <__vector_5+0x20c>
     e2a:	0e 94 b4 03 	call	0x768	; 0x768 <AdjustAlarm>
     e2e:	0e 94 08 05 	call	0xa10	; 0xa10 <UpdateAlarm>
     e32:	0e 94 7d 05 	call	0xafa	; 0xafa <UpdateLCD>
     e36:	8f e5       	ldi	r24, 0x5F	; 95
     e38:	9a ee       	ldi	r25, 0xEA	; 234
     e3a:	01 97       	sbiw	r24, 0x01	; 1
     e3c:	f1 f7       	brne	.-4      	; 0xe3a <__vector_5+0x218>
     e3e:	00 c0       	rjmp	.+0      	; 0xe40 <__vector_5+0x21e>
     e40:	00 00       	nop
     e42:	ff 91       	pop	r31
     e44:	ef 91       	pop	r30
     e46:	bf 91       	pop	r27
     e48:	af 91       	pop	r26
     e4a:	9f 91       	pop	r25
     e4c:	8f 91       	pop	r24
     e4e:	7f 91       	pop	r23
     e50:	6f 91       	pop	r22
     e52:	5f 91       	pop	r21
     e54:	4f 91       	pop	r20
     e56:	3f 91       	pop	r19
     e58:	2f 91       	pop	r18
     e5a:	0f 90       	pop	r0
     e5c:	0f be       	out	0x3f, r0	; 63
     e5e:	0f 90       	pop	r0
     e60:	1f 90       	pop	r1
     e62:	18 95       	reti

00000e64 <__vector_4>:
     e64:	1f 92       	push	r1
     e66:	0f 92       	push	r0
     e68:	0f b6       	in	r0, 0x3f	; 63
     e6a:	0f 92       	push	r0
     e6c:	11 24       	eor	r1, r1
     e6e:	2f 93       	push	r18
     e70:	3f 93       	push	r19
     e72:	4f 93       	push	r20
     e74:	5f 93       	push	r21
     e76:	6f 93       	push	r22
     e78:	7f 93       	push	r23
     e7a:	8f 93       	push	r24
     e7c:	9f 93       	push	r25
     e7e:	af 93       	push	r26
     e80:	bf 93       	push	r27
     e82:	ef 93       	push	r30
     e84:	ff 93       	push	r31
     e86:	80 91 26 01 	lds	r24, 0x0126	; 0x800126 <fire_alarm>
     e8a:	90 91 27 01 	lds	r25, 0x0127	; 0x800127 <fire_alarm+0x1>
     e8e:	01 97       	sbiw	r24, 0x01	; 1
     e90:	11 f4       	brne	.+4      	; 0xe96 <__vector_4+0x32>
     e92:	0e 94 08 04 	call	0x810	; 0x810 <CancelAlarm>
     e96:	80 91 3c 01 	lds	r24, 0x013C	; 0x80013c <mode>
     e9a:	90 91 3d 01 	lds	r25, 0x013D	; 0x80013d <mode+0x1>
     e9e:	00 97       	sbiw	r24, 0x00	; 0
     ea0:	09 f0       	breq	.+2      	; 0xea4 <__vector_4+0x40>
     ea2:	79 c0       	rjmp	.+242    	; 0xf96 <__vector_4+0x132>
     ea4:	e0 91 38 01 	lds	r30, 0x0138	; 0x800138 <toggle_count>
     ea8:	f0 91 39 01 	lds	r31, 0x0139	; 0x800139 <toggle_count+0x1>
     eac:	e8 30       	cpi	r30, 0x08	; 8
     eae:	f1 05       	cpc	r31, r1
     eb0:	08 f0       	brcs	.+2      	; 0xeb4 <__vector_4+0x50>
     eb2:	6c c0       	rjmp	.+216    	; 0xf8c <__vector_4+0x128>
     eb4:	e5 5c       	subi	r30, 0xC5	; 197
     eb6:	ff 4f       	sbci	r31, 0xFF	; 255
     eb8:	0c 94 47 09 	jmp	0x128e	; 0x128e <__tablejump2__>
     ebc:	80 91 32 01 	lds	r24, 0x0132	; 0x800132 <time>
     ec0:	90 91 33 01 	lds	r25, 0x0133	; 0x800133 <time+0x1>
     ec4:	a0 91 34 01 	lds	r26, 0x0134	; 0x800134 <time+0x2>
     ec8:	b0 91 35 01 	lds	r27, 0x0135	; 0x800135 <time+0x3>
     ecc:	80 51       	subi	r24, 0x10	; 16
     ece:	9e 40       	sbci	r25, 0x0E	; 14
     ed0:	a1 09       	sbc	r26, r1
     ed2:	b1 09       	sbc	r27, r1
     ed4:	0b c0       	rjmp	.+22     	; 0xeec <__vector_4+0x88>
     ed6:	80 91 32 01 	lds	r24, 0x0132	; 0x800132 <time>
     eda:	90 91 33 01 	lds	r25, 0x0133	; 0x800133 <time+0x1>
     ede:	a0 91 34 01 	lds	r26, 0x0134	; 0x800134 <time+0x2>
     ee2:	b0 91 35 01 	lds	r27, 0x0135	; 0x800135 <time+0x3>
     ee6:	cc 97       	sbiw	r24, 0x3c	; 60
     ee8:	a1 09       	sbc	r26, r1
     eea:	b1 09       	sbc	r27, r1
     eec:	80 93 32 01 	sts	0x0132, r24	; 0x800132 <time>
     ef0:	90 93 33 01 	sts	0x0133, r25	; 0x800133 <time+0x1>
     ef4:	a0 93 34 01 	sts	0x0134, r26	; 0x800134 <time+0x2>
     ef8:	b0 93 35 01 	sts	0x0135, r27	; 0x800135 <time+0x3>
     efc:	47 c0       	rjmp	.+142    	; 0xf8c <__vector_4+0x128>
     efe:	80 91 32 01 	lds	r24, 0x0132	; 0x800132 <time>
     f02:	90 91 33 01 	lds	r25, 0x0133	; 0x800133 <time+0x1>
     f06:	a0 91 34 01 	lds	r26, 0x0134	; 0x800134 <time+0x2>
     f0a:	b0 91 35 01 	lds	r27, 0x0135	; 0x800135 <time+0x3>
     f0e:	01 97       	sbiw	r24, 0x01	; 1
     f10:	a1 09       	sbc	r26, r1
     f12:	b1 09       	sbc	r27, r1
     f14:	eb cf       	rjmp	.-42     	; 0xeec <__vector_4+0x88>
     f16:	81 e0       	ldi	r24, 0x01	; 1
     f18:	90 e0       	ldi	r25, 0x00	; 0
     f1a:	20 91 40 01 	lds	r18, 0x0140	; 0x800140 <am_pm_t>
     f1e:	30 91 41 01 	lds	r19, 0x0141	; 0x800141 <am_pm_t+0x1>
     f22:	23 2b       	or	r18, r19
     f24:	11 f0       	breq	.+4      	; 0xf2a <__vector_4+0xc6>
     f26:	80 e0       	ldi	r24, 0x00	; 0
     f28:	90 e0       	ldi	r25, 0x00	; 0
     f2a:	90 93 41 01 	sts	0x0141, r25	; 0x800141 <am_pm_t+0x1>
     f2e:	80 93 40 01 	sts	0x0140, r24	; 0x800140 <am_pm_t>
     f32:	2c c0       	rjmp	.+88     	; 0xf8c <__vector_4+0x128>
     f34:	80 91 08 01 	lds	r24, 0x0108	; 0x800108 <days>
     f38:	90 91 09 01 	lds	r25, 0x0109	; 0x800109 <days+0x1>
     f3c:	a0 91 0a 01 	lds	r26, 0x010A	; 0x80010a <days+0x2>
     f40:	b0 91 0b 01 	lds	r27, 0x010B	; 0x80010b <days+0x3>
     f44:	01 97       	sbiw	r24, 0x01	; 1
     f46:	a1 09       	sbc	r26, r1
     f48:	b1 09       	sbc	r27, r1
     f4a:	18 c0       	rjmp	.+48     	; 0xf7c <__vector_4+0x118>
     f4c:	80 91 08 01 	lds	r24, 0x0108	; 0x800108 <days>
     f50:	90 91 09 01 	lds	r25, 0x0109	; 0x800109 <days+0x1>
     f54:	a0 91 0a 01 	lds	r26, 0x010A	; 0x80010a <days+0x2>
     f58:	b0 91 0b 01 	lds	r27, 0x010B	; 0x80010b <days+0x3>
     f5c:	4e 97       	sbiw	r24, 0x1e	; 30
     f5e:	a1 09       	sbc	r26, r1
     f60:	b1 09       	sbc	r27, r1
     f62:	0c c0       	rjmp	.+24     	; 0xf7c <__vector_4+0x118>
     f64:	80 91 08 01 	lds	r24, 0x0108	; 0x800108 <days>
     f68:	90 91 09 01 	lds	r25, 0x0109	; 0x800109 <days+0x1>
     f6c:	a0 91 0a 01 	lds	r26, 0x010A	; 0x80010a <days+0x2>
     f70:	b0 91 0b 01 	lds	r27, 0x010B	; 0x80010b <days+0x3>
     f74:	88 56       	subi	r24, 0x68	; 104
     f76:	91 40       	sbci	r25, 0x01	; 1
     f78:	a1 09       	sbc	r26, r1
     f7a:	b1 09       	sbc	r27, r1
     f7c:	80 93 08 01 	sts	0x0108, r24	; 0x800108 <days>
     f80:	90 93 09 01 	sts	0x0109, r25	; 0x800109 <days+0x1>
     f84:	a0 93 0a 01 	sts	0x010A, r26	; 0x80010a <days+0x2>
     f88:	b0 93 0b 01 	sts	0x010B, r27	; 0x80010b <days+0x3>
     f8c:	0e 94 aa 04 	call	0x954	; 0x954 <UpdateDate>
     f90:	0e 94 14 04 	call	0x828	; 0x828 <UpdateTime>
     f94:	6e c0       	rjmp	.+220    	; 0x1072 <__vector_4+0x20e>
     f96:	01 97       	sbiw	r24, 0x01	; 1
     f98:	09 f0       	breq	.+2      	; 0xf9c <__vector_4+0x138>
     f9a:	6b c0       	rjmp	.+214    	; 0x1072 <__vector_4+0x20e>
     f9c:	80 91 38 01 	lds	r24, 0x0138	; 0x800138 <toggle_count>
     fa0:	90 91 39 01 	lds	r25, 0x0139	; 0x800139 <toggle_count+0x1>
     fa4:	83 30       	cpi	r24, 0x03	; 3
     fa6:	91 05       	cpc	r25, r1
     fa8:	31 f1       	breq	.+76     	; 0xff6 <__vector_4+0x192>
     faa:	90 f4       	brcc	.+36     	; 0xfd0 <__vector_4+0x16c>
     fac:	81 30       	cpi	r24, 0x01	; 1
     fae:	91 05       	cpc	r25, r1
     fb0:	a9 f0       	breq	.+42     	; 0xfdc <__vector_4+0x178>
     fb2:	02 97       	sbiw	r24, 0x02	; 2
     fb4:	09 f0       	breq	.+2      	; 0xfb8 <__vector_4+0x154>
     fb6:	50 c0       	rjmp	.+160    	; 0x1058 <__vector_4+0x1f4>
     fb8:	80 91 2a 01 	lds	r24, 0x012A	; 0x80012a <alarm_value>
     fbc:	90 91 2b 01 	lds	r25, 0x012B	; 0x80012b <alarm_value+0x1>
     fc0:	a0 91 2c 01 	lds	r26, 0x012C	; 0x80012c <alarm_value+0x2>
     fc4:	b0 91 2d 01 	lds	r27, 0x012D	; 0x80012d <alarm_value+0x3>
     fc8:	cc 97       	sbiw	r24, 0x3c	; 60
     fca:	a1 09       	sbc	r26, r1
     fcc:	b1 09       	sbc	r27, r1
     fce:	1e c0       	rjmp	.+60     	; 0x100c <__vector_4+0x1a8>
     fd0:	84 30       	cpi	r24, 0x04	; 4
     fd2:	91 05       	cpc	r25, r1
     fd4:	21 f1       	breq	.+72     	; 0x101e <__vector_4+0x1ba>
     fd6:	05 97       	sbiw	r24, 0x05	; 5
     fd8:	89 f1       	breq	.+98     	; 0x103c <__vector_4+0x1d8>
     fda:	3e c0       	rjmp	.+124    	; 0x1058 <__vector_4+0x1f4>
     fdc:	80 91 2a 01 	lds	r24, 0x012A	; 0x80012a <alarm_value>
     fe0:	90 91 2b 01 	lds	r25, 0x012B	; 0x80012b <alarm_value+0x1>
     fe4:	a0 91 2c 01 	lds	r26, 0x012C	; 0x80012c <alarm_value+0x2>
     fe8:	b0 91 2d 01 	lds	r27, 0x012D	; 0x80012d <alarm_value+0x3>
     fec:	80 51       	subi	r24, 0x10	; 16
     fee:	9e 40       	sbci	r25, 0x0E	; 14
     ff0:	a1 09       	sbc	r26, r1
     ff2:	b1 09       	sbc	r27, r1
     ff4:	0b c0       	rjmp	.+22     	; 0x100c <__vector_4+0x1a8>
     ff6:	80 91 2a 01 	lds	r24, 0x012A	; 0x80012a <alarm_value>
     ffa:	90 91 2b 01 	lds	r25, 0x012B	; 0x80012b <alarm_value+0x1>
     ffe:	a0 91 2c 01 	lds	r26, 0x012C	; 0x80012c <alarm_value+0x2>
    1002:	b0 91 2d 01 	lds	r27, 0x012D	; 0x80012d <alarm_value+0x3>
    1006:	01 97       	sbiw	r24, 0x01	; 1
    1008:	a1 09       	sbc	r26, r1
    100a:	b1 09       	sbc	r27, r1
    100c:	80 93 2a 01 	sts	0x012A, r24	; 0x80012a <alarm_value>
    1010:	90 93 2b 01 	sts	0x012B, r25	; 0x80012b <alarm_value+0x1>
    1014:	a0 93 2c 01 	sts	0x012C, r26	; 0x80012c <alarm_value+0x2>
    1018:	b0 93 2d 01 	sts	0x012D, r27	; 0x80012d <alarm_value+0x3>
    101c:	1d c0       	rjmp	.+58     	; 0x1058 <__vector_4+0x1f4>
    101e:	81 e0       	ldi	r24, 0x01	; 1
    1020:	90 e0       	ldi	r25, 0x00	; 0
    1022:	20 91 3e 01 	lds	r18, 0x013E	; 0x80013e <am_pm_a>
    1026:	30 91 3f 01 	lds	r19, 0x013F	; 0x80013f <am_pm_a+0x1>
    102a:	23 2b       	or	r18, r19
    102c:	11 f0       	breq	.+4      	; 0x1032 <__vector_4+0x1ce>
    102e:	80 e0       	ldi	r24, 0x00	; 0
    1030:	90 e0       	ldi	r25, 0x00	; 0
    1032:	90 93 3f 01 	sts	0x013F, r25	; 0x80013f <am_pm_a+0x1>
    1036:	80 93 3e 01 	sts	0x013E, r24	; 0x80013e <am_pm_a>
    103a:	0e c0       	rjmp	.+28     	; 0x1058 <__vector_4+0x1f4>
    103c:	81 e0       	ldi	r24, 0x01	; 1
    103e:	90 e0       	ldi	r25, 0x00	; 0
    1040:	20 91 28 01 	lds	r18, 0x0128	; 0x800128 <alarm_state>
    1044:	30 91 29 01 	lds	r19, 0x0129	; 0x800129 <alarm_state+0x1>
    1048:	23 2b       	or	r18, r19
    104a:	11 f0       	breq	.+4      	; 0x1050 <__vector_4+0x1ec>
    104c:	80 e0       	ldi	r24, 0x00	; 0
    104e:	90 e0       	ldi	r25, 0x00	; 0
    1050:	90 93 29 01 	sts	0x0129, r25	; 0x800129 <alarm_state+0x1>
    1054:	80 93 28 01 	sts	0x0128, r24	; 0x800128 <alarm_state>
    1058:	80 91 28 01 	lds	r24, 0x0128	; 0x800128 <alarm_state>
    105c:	90 91 29 01 	lds	r25, 0x0129	; 0x800129 <alarm_state+0x1>
    1060:	89 2b       	or	r24, r25
    1062:	19 f4       	brne	.+6      	; 0x106a <__vector_4+0x206>
    1064:	0e 94 08 04 	call	0x810	; 0x810 <CancelAlarm>
    1068:	02 c0       	rjmp	.+4      	; 0x106e <__vector_4+0x20a>
    106a:	0e 94 b4 03 	call	0x768	; 0x768 <AdjustAlarm>
    106e:	0e 94 08 05 	call	0xa10	; 0xa10 <UpdateAlarm>
    1072:	0e 94 7d 05 	call	0xafa	; 0xafa <UpdateLCD>
    1076:	8f e5       	ldi	r24, 0x5F	; 95
    1078:	9a ee       	ldi	r25, 0xEA	; 234
    107a:	01 97       	sbiw	r24, 0x01	; 1
    107c:	f1 f7       	brne	.-4      	; 0x107a <__vector_4+0x216>
    107e:	00 c0       	rjmp	.+0      	; 0x1080 <__vector_4+0x21c>
    1080:	00 00       	nop
    1082:	ff 91       	pop	r31
    1084:	ef 91       	pop	r30
    1086:	bf 91       	pop	r27
    1088:	af 91       	pop	r26
    108a:	9f 91       	pop	r25
    108c:	8f 91       	pop	r24
    108e:	7f 91       	pop	r23
    1090:	6f 91       	pop	r22
    1092:	5f 91       	pop	r21
    1094:	4f 91       	pop	r20
    1096:	3f 91       	pop	r19
    1098:	2f 91       	pop	r18
    109a:	0f 90       	pop	r0
    109c:	0f be       	out	0x3f, r0	; 63
    109e:	0f 90       	pop	r0
    10a0:	1f 90       	pop	r1
    10a2:	18 95       	reti

000010a4 <__vector_11>:
    10a4:	1f 92       	push	r1
    10a6:	0f 92       	push	r0
    10a8:	0f b6       	in	r0, 0x3f	; 63
    10aa:	0f 92       	push	r0
    10ac:	11 24       	eor	r1, r1
    10ae:	0f 93       	push	r16
    10b0:	1f 93       	push	r17
    10b2:	2f 93       	push	r18
    10b4:	3f 93       	push	r19
    10b6:	4f 93       	push	r20
    10b8:	5f 93       	push	r21
    10ba:	6f 93       	push	r22
    10bc:	7f 93       	push	r23
    10be:	8f 93       	push	r24
    10c0:	9f 93       	push	r25
    10c2:	af 93       	push	r26
    10c4:	bf 93       	push	r27
    10c6:	ef 93       	push	r30
    10c8:	ff 93       	push	r31
    10ca:	80 91 32 01 	lds	r24, 0x0132	; 0x800132 <time>
    10ce:	90 91 33 01 	lds	r25, 0x0133	; 0x800133 <time+0x1>
    10d2:	a0 91 34 01 	lds	r26, 0x0134	; 0x800134 <time+0x2>
    10d6:	b0 91 35 01 	lds	r27, 0x0135	; 0x800135 <time+0x3>
    10da:	ac 01       	movw	r20, r24
    10dc:	bd 01       	movw	r22, r26
    10de:	4f 5f       	subi	r20, 0xFF	; 255
    10e0:	5f 4f       	sbci	r21, 0xFF	; 255
    10e2:	6f 4f       	sbci	r22, 0xFF	; 255
    10e4:	7f 4f       	sbci	r23, 0xFF	; 255
    10e6:	40 93 32 01 	sts	0x0132, r20	; 0x800132 <time>
    10ea:	50 93 33 01 	sts	0x0133, r21	; 0x800133 <time+0x1>
    10ee:	60 93 34 01 	sts	0x0134, r22	; 0x800134 <time+0x2>
    10f2:	70 93 35 01 	sts	0x0135, r23	; 0x800135 <time+0x3>
    10f6:	8f 57       	subi	r24, 0x7F	; 127
    10f8:	91 45       	sbci	r25, 0x51	; 81
    10fa:	a1 40       	sbci	r26, 0x01	; 1
    10fc:	b1 09       	sbc	r27, r1
    10fe:	80 38       	cpi	r24, 0x80	; 128
    1100:	91 45       	sbci	r25, 0x51	; 81
    1102:	a1 40       	sbci	r26, 0x01	; 1
    1104:	b1 05       	cpc	r27, r1
    1106:	10 f4       	brcc	.+4      	; 0x110c <__vector_11+0x68>
    1108:	0e 94 aa 04 	call	0x954	; 0x954 <UpdateDate>
    110c:	0e 94 14 04 	call	0x828	; 0x828 <UpdateTime>
    1110:	80 91 28 01 	lds	r24, 0x0128	; 0x800128 <alarm_state>
    1114:	90 91 29 01 	lds	r25, 0x0129	; 0x800129 <alarm_state+0x1>
    1118:	81 30       	cpi	r24, 0x01	; 1
    111a:	91 05       	cpc	r25, r1
    111c:	c9 f4       	brne	.+50     	; 0x1150 <__vector_11+0xac>
    111e:	00 91 2a 01 	lds	r16, 0x012A	; 0x80012a <alarm_value>
    1122:	10 91 2b 01 	lds	r17, 0x012B	; 0x80012b <alarm_value+0x1>
    1126:	20 91 2c 01 	lds	r18, 0x012C	; 0x80012c <alarm_value+0x2>
    112a:	30 91 2d 01 	lds	r19, 0x012D	; 0x80012d <alarm_value+0x3>
    112e:	40 91 32 01 	lds	r20, 0x0132	; 0x800132 <time>
    1132:	50 91 33 01 	lds	r21, 0x0133	; 0x800133 <time+0x1>
    1136:	60 91 34 01 	lds	r22, 0x0134	; 0x800134 <time+0x2>
    113a:	70 91 35 01 	lds	r23, 0x0135	; 0x800135 <time+0x3>
    113e:	04 17       	cp	r16, r20
    1140:	15 07       	cpc	r17, r21
    1142:	26 07       	cpc	r18, r22
    1144:	37 07       	cpc	r19, r23
    1146:	21 f4       	brne	.+8      	; 0x1150 <__vector_11+0xac>
    1148:	90 93 27 01 	sts	0x0127, r25	; 0x800127 <fire_alarm+0x1>
    114c:	80 93 26 01 	sts	0x0126, r24	; 0x800126 <fire_alarm>
    1150:	0e 94 7d 05 	call	0xafa	; 0xafa <UpdateLCD>
    1154:	ff 91       	pop	r31
    1156:	ef 91       	pop	r30
    1158:	bf 91       	pop	r27
    115a:	af 91       	pop	r26
    115c:	9f 91       	pop	r25
    115e:	8f 91       	pop	r24
    1160:	7f 91       	pop	r23
    1162:	6f 91       	pop	r22
    1164:	5f 91       	pop	r21
    1166:	4f 91       	pop	r20
    1168:	3f 91       	pop	r19
    116a:	2f 91       	pop	r18
    116c:	1f 91       	pop	r17
    116e:	0f 91       	pop	r16
    1170:	0f 90       	pop	r0
    1172:	0f be       	out	0x3f, r0	; 63
    1174:	0f 90       	pop	r0
    1176:	1f 90       	pop	r1
    1178:	18 95       	reti

0000117a <OK>:
    117a:	34 9b       	sbis	0x06, 4	; 6
    117c:	fe cf       	rjmp	.-4      	; 0x117a <OK>
    117e:	80 91 26 01 	lds	r24, 0x0126	; 0x800126 <fire_alarm>
    1182:	90 91 27 01 	lds	r25, 0x0127	; 0x800127 <fire_alarm+0x1>
    1186:	01 97       	sbiw	r24, 0x01	; 1
    1188:	11 f4       	brne	.+4      	; 0x118e <OK+0x14>
    118a:	0e 94 08 04 	call	0x810	; 0x810 <CancelAlarm>
    118e:	80 91 3c 01 	lds	r24, 0x013C	; 0x80013c <mode>
    1192:	90 91 3d 01 	lds	r25, 0x013D	; 0x80013d <mode+0x1>
    1196:	00 97       	sbiw	r24, 0x00	; 0
    1198:	31 f0       	breq	.+12     	; 0x11a6 <OK+0x2c>
    119a:	01 97       	sbiw	r24, 0x01	; 1
    119c:	41 f4       	brne	.+16     	; 0x11ae <OK+0x34>
    119e:	10 92 3d 01 	sts	0x013D, r1	; 0x80013d <mode+0x1>
    11a2:	10 92 3c 01 	sts	0x013C, r1	; 0x80013c <mode>
    11a6:	10 92 39 01 	sts	0x0139, r1	; 0x800139 <toggle_count+0x1>
    11aa:	10 92 38 01 	sts	0x0138, r1	; 0x800138 <toggle_count>
    11ae:	0c 94 7d 05 	jmp	0xafa	; 0xafa <UpdateLCD>

000011b2 <main>:
    11b2:	0e 94 af 01 	call	0x35e	; 0x35e <Lcd4_Init>
    11b6:	0e 94 7d 05 	call	0xafa	; 0xafa <UpdateLCD>
    11ba:	0e 94 a0 03 	call	0x740	; 0x740 <CTC_mode>
    11be:	0e 94 92 03 	call	0x724	; 0x724 <ADC_intialzation>
    11c2:	23 9a       	sbi	0x04, 3	; 4
    11c4:	3b 98       	cbi	0x07, 3	; 7
    11c6:	3c 98       	cbi	0x07, 4	; 7
    11c8:	51 98       	cbi	0x0a, 1	; 10
    11ca:	52 98       	cbi	0x0a, 2	; 10
    11cc:	53 98       	cbi	0x0a, 3	; 10
    11ce:	43 9a       	sbi	0x08, 3	; 8
    11d0:	44 9a       	sbi	0x08, 4	; 8
    11d2:	59 9a       	sbi	0x0b, 1	; 11
    11d4:	5a 9a       	sbi	0x0b, 2	; 11
    11d6:	5b 9a       	sbi	0x0b, 3	; 11
    11d8:	80 91 68 00 	lds	r24, 0x0068	; 0x800068 <__TEXT_REGION_LENGTH__+0x7e0068>
    11dc:	86 60       	ori	r24, 0x06	; 6
    11de:	80 93 68 00 	sts	0x0068, r24	; 0x800068 <__TEXT_REGION_LENGTH__+0x7e0068>
    11e2:	80 91 6c 00 	lds	r24, 0x006C	; 0x80006c <__TEXT_REGION_LENGTH__+0x7e006c>
    11e6:	88 60       	ori	r24, 0x08	; 8
    11e8:	80 93 6c 00 	sts	0x006C, r24	; 0x80006c <__TEXT_REGION_LENGTH__+0x7e006c>
    11ec:	80 91 6d 00 	lds	r24, 0x006D	; 0x80006d <__TEXT_REGION_LENGTH__+0x7e006d>
    11f0:	82 60       	ori	r24, 0x02	; 2
    11f2:	80 93 6d 00 	sts	0x006D, r24	; 0x80006d <__TEXT_REGION_LENGTH__+0x7e006d>
    11f6:	80 91 69 00 	lds	r24, 0x0069	; 0x800069 <__TEXT_REGION_LENGTH__+0x7e0069>
    11fa:	8a 60       	ori	r24, 0x0A	; 10
    11fc:	80 93 69 00 	sts	0x0069, r24	; 0x800069 <__TEXT_REGION_LENGTH__+0x7e0069>
    1200:	8d b3       	in	r24, 0x1d	; 29
    1202:	83 60       	ori	r24, 0x03	; 3
    1204:	8d bb       	out	0x1d, r24	; 29
    1206:	78 94       	sei
    1208:	80 91 26 01 	lds	r24, 0x0126	; 0x800126 <fire_alarm>
    120c:	90 91 27 01 	lds	r25, 0x0127	; 0x800127 <fire_alarm+0x1>
    1210:	01 97       	sbiw	r24, 0x01	; 1
    1212:	11 f4       	brne	.+4      	; 0x1218 <main+0x66>
    1214:	0e 94 12 04 	call	0x824	; 0x824 <buzzer>
    1218:	34 99       	sbic	0x06, 4	; 6
    121a:	f6 cf       	rjmp	.-20     	; 0x1208 <main+0x56>
    121c:	0e 94 bd 08 	call	0x117a	; 0x117a <OK>
    1220:	f3 cf       	rjmp	.-26     	; 0x1208 <main+0x56>

00001222 <__udivmodhi4>:
    1222:	aa 1b       	sub	r26, r26
    1224:	bb 1b       	sub	r27, r27
    1226:	51 e1       	ldi	r21, 0x11	; 17
    1228:	07 c0       	rjmp	.+14     	; 0x1238 <__udivmodhi4_ep>

0000122a <__udivmodhi4_loop>:
    122a:	aa 1f       	adc	r26, r26
    122c:	bb 1f       	adc	r27, r27
    122e:	a6 17       	cp	r26, r22
    1230:	b7 07       	cpc	r27, r23
    1232:	10 f0       	brcs	.+4      	; 0x1238 <__udivmodhi4_ep>
    1234:	a6 1b       	sub	r26, r22
    1236:	b7 0b       	sbc	r27, r23

00001238 <__udivmodhi4_ep>:
    1238:	88 1f       	adc	r24, r24
    123a:	99 1f       	adc	r25, r25
    123c:	5a 95       	dec	r21
    123e:	a9 f7       	brne	.-22     	; 0x122a <__udivmodhi4_loop>
    1240:	80 95       	com	r24
    1242:	90 95       	com	r25
    1244:	bc 01       	movw	r22, r24
    1246:	cd 01       	movw	r24, r26
    1248:	08 95       	ret

0000124a <__udivmodsi4>:
    124a:	a1 e2       	ldi	r26, 0x21	; 33
    124c:	1a 2e       	mov	r1, r26
    124e:	aa 1b       	sub	r26, r26
    1250:	bb 1b       	sub	r27, r27
    1252:	fd 01       	movw	r30, r26
    1254:	0d c0       	rjmp	.+26     	; 0x1270 <__udivmodsi4_ep>

00001256 <__udivmodsi4_loop>:
    1256:	aa 1f       	adc	r26, r26
    1258:	bb 1f       	adc	r27, r27
    125a:	ee 1f       	adc	r30, r30
    125c:	ff 1f       	adc	r31, r31
    125e:	a2 17       	cp	r26, r18
    1260:	b3 07       	cpc	r27, r19
    1262:	e4 07       	cpc	r30, r20
    1264:	f5 07       	cpc	r31, r21
    1266:	20 f0       	brcs	.+8      	; 0x1270 <__udivmodsi4_ep>
    1268:	a2 1b       	sub	r26, r18
    126a:	b3 0b       	sbc	r27, r19
    126c:	e4 0b       	sbc	r30, r20
    126e:	f5 0b       	sbc	r31, r21

00001270 <__udivmodsi4_ep>:
    1270:	66 1f       	adc	r22, r22
    1272:	77 1f       	adc	r23, r23
    1274:	88 1f       	adc	r24, r24
    1276:	99 1f       	adc	r25, r25
    1278:	1a 94       	dec	r1
    127a:	69 f7       	brne	.-38     	; 0x1256 <__udivmodsi4_loop>
    127c:	60 95       	com	r22
    127e:	70 95       	com	r23
    1280:	80 95       	com	r24
    1282:	90 95       	com	r25
    1284:	9b 01       	movw	r18, r22
    1286:	ac 01       	movw	r20, r24
    1288:	bd 01       	movw	r22, r26
    128a:	cf 01       	movw	r24, r30
    128c:	08 95       	ret

0000128e <__tablejump2__>:
    128e:	ee 0f       	add	r30, r30
    1290:	ff 1f       	adc	r31, r31
    1292:	05 90       	lpm	r0, Z+
    1294:	f4 91       	lpm	r31, Z
    1296:	e0 2d       	mov	r30, r0
    1298:	09 94       	ijmp

0000129a <itoa>:
    129a:	45 32       	cpi	r20, 0x25	; 37
    129c:	51 05       	cpc	r21, r1
    129e:	20 f4       	brcc	.+8      	; 0x12a8 <itoa+0xe>
    12a0:	42 30       	cpi	r20, 0x02	; 2
    12a2:	10 f0       	brcs	.+4      	; 0x12a8 <itoa+0xe>
    12a4:	0c 94 58 09 	jmp	0x12b0	; 0x12b0 <__itoa_ncheck>
    12a8:	fb 01       	movw	r30, r22
    12aa:	10 82       	st	Z, r1
    12ac:	cb 01       	movw	r24, r22
    12ae:	08 95       	ret

000012b0 <__itoa_ncheck>:
    12b0:	bb 27       	eor	r27, r27
    12b2:	4a 30       	cpi	r20, 0x0A	; 10
    12b4:	31 f4       	brne	.+12     	; 0x12c2 <__itoa_ncheck+0x12>
    12b6:	99 23       	and	r25, r25
    12b8:	22 f4       	brpl	.+8      	; 0x12c2 <__itoa_ncheck+0x12>
    12ba:	bd e2       	ldi	r27, 0x2D	; 45
    12bc:	90 95       	com	r25
    12be:	81 95       	neg	r24
    12c0:	9f 4f       	sbci	r25, 0xFF	; 255
    12c2:	0c 94 64 09 	jmp	0x12c8	; 0x12c8 <__utoa_common>

000012c6 <__utoa_ncheck>:
    12c6:	bb 27       	eor	r27, r27

000012c8 <__utoa_common>:
    12c8:	fb 01       	movw	r30, r22
    12ca:	55 27       	eor	r21, r21
    12cc:	aa 27       	eor	r26, r26
    12ce:	88 0f       	add	r24, r24
    12d0:	99 1f       	adc	r25, r25
    12d2:	aa 1f       	adc	r26, r26
    12d4:	a4 17       	cp	r26, r20
    12d6:	10 f0       	brcs	.+4      	; 0x12dc <__utoa_common+0x14>
    12d8:	a4 1b       	sub	r26, r20
    12da:	83 95       	inc	r24
    12dc:	50 51       	subi	r21, 0x10	; 16
    12de:	b9 f7       	brne	.-18     	; 0x12ce <__utoa_common+0x6>
    12e0:	a0 5d       	subi	r26, 0xD0	; 208
    12e2:	aa 33       	cpi	r26, 0x3A	; 58
    12e4:	08 f0       	brcs	.+2      	; 0x12e8 <__utoa_common+0x20>
    12e6:	a9 5d       	subi	r26, 0xD9	; 217
    12e8:	a1 93       	st	Z+, r26
    12ea:	00 97       	sbiw	r24, 0x00	; 0
    12ec:	79 f7       	brne	.-34     	; 0x12cc <__utoa_common+0x4>
    12ee:	b1 11       	cpse	r27, r1
    12f0:	b1 93       	st	Z+, r27
    12f2:	11 92       	st	Z+, r1
    12f4:	cb 01       	movw	r24, r22
    12f6:	0c 94 7d 09 	jmp	0x12fa	; 0x12fa <strrev>

000012fa <strrev>:
    12fa:	dc 01       	movw	r26, r24
    12fc:	fc 01       	movw	r30, r24
    12fe:	67 2f       	mov	r22, r23
    1300:	71 91       	ld	r23, Z+
    1302:	77 23       	and	r23, r23
    1304:	e1 f7       	brne	.-8      	; 0x12fe <strrev+0x4>
    1306:	32 97       	sbiw	r30, 0x02	; 2
    1308:	04 c0       	rjmp	.+8      	; 0x1312 <strrev+0x18>
    130a:	7c 91       	ld	r23, X
    130c:	6d 93       	st	X+, r22
    130e:	70 83       	st	Z, r23
    1310:	62 91       	ld	r22, -Z
    1312:	ae 17       	cp	r26, r30
    1314:	bf 07       	cpc	r27, r31
    1316:	c8 f3       	brcs	.-14     	; 0x130a <strrev+0x10>
    1318:	08 95       	ret

0000131a <_exit>:
    131a:	f8 94       	cli

0000131c <__stop_program>:
    131c:	ff cf       	rjmp	.-2      	; 0x131c <__stop_program>
